TN:
SF:/Users/slavavikentev/Desktop/учеба/семестр 3/прога/lab-sem-3/лаб3/include/array.hpp
FNL:0,107,119
FNA:0,12,_ZN5ArrayIiE6changeEii
FNL:1,122,134
FNA:1,64,_ZNK5ArrayIiE3getEi
FNL:2,137,151
FNA:2,4,_ZNK5ArrayIiE5printEv
FNL:3,14,32
FNA:3,66,_ZN5ArrayIiE6resizeEi
FNL:4,37,37
FNA:4,40,_ZN5ArrayIiEC1Ev
FNA:4,40,_ZN5ArrayIiEC2Ev
FNL:5,40,46
FNA:5,6,_ZN5ArrayIiEC1Ei
FNA:5,6,_ZN5ArrayIiEC2Ei
FNL:6,49,52
FNA:6,46,_ZN5ArrayIiED1Ev
FNA:6,46,_ZN5ArrayIiED2Ev
FNL:7,55,63
FNA:7,668,_ZN5ArrayIiE9push_backEi
FNL:8,66,82
FNA:8,16,_ZN5ArrayIiE3setEii
FNL:9,85,104
FNA:9,40,_ZN5ArrayIiE6removeEi
FNF:10
FNH:10
DA:14,66
DA:15,66
DA:16,0
DA:18,66
DA:19,66
DA:21,866
DA:22,800
DA:23,800
DA:24,800
DA:26,66
DA:27,66
DA:29,66
DA:30,66
DA:31,66
DA:32,66
DA:37,80
DA:40,12
DA:41,6
DA:42,4
DA:43,4
DA:44,4
DA:45,4
DA:46,12
DA:49,92
DA:50,46
DA:51,46
DA:52,92
DA:55,668
DA:56,668
DA:57,58
DA:58,58
DA:59,58
DA:60,668
DA:61,668
DA:62,668
DA:63,668
DA:66,16
DA:67,16
DA:68,4
DA:69,4
DA:72,12
DA:73,8
DA:74,8
DA:75,8
DA:77,12
DA:78,12
DA:80,12
DA:81,12
DA:82,16
DA:85,40
DA:86,40
DA:87,8
DA:88,8
DA:91,32
DA:92,0
DA:93,0
DA:96,32
DA:97,32
DA:99,32
DA:100,58
DA:101,44
DA:103,14
DA:104,40
DA:107,12
DA:108,12
DA:109,4
DA:110,4
DA:113,8
DA:114,0
DA:115,0
DA:118,8
DA:119,12
DA:122,64
DA:123,64
DA:124,32
DA:125,32
DA:128,32
DA:129,0
DA:130,0
DA:133,32
DA:134,64
DA:137,4
DA:138,4
DA:139,2
DA:140,2
DA:143,2
DA:144,6
DA:145,4
DA:146,4
DA:148,0
DA:149,4
DA:150,2
DA:151,4
LF:93
LH:85
end_of_record
TN:
SF:/Users/slavavikentev/Desktop/учеба/семестр 3/прога/lab-sem-3/лаб3/include/doublylist.hpp
FNL:0,118,133
FNA:0,26,_ZN10DoublyListIiE9pop_frontEv
FNL:1,135,150
FNA:1,6,_ZN10DoublyListIiE8pop_backEv
FNL:2,14,14
FNA:2,594,_ZN10DoublyListIiE4NodeC1ERKi
FNA:2,594,_ZN10DoublyListIiE4NodeC2ERKi
FNL:3,152,173
FNA:3,46,_ZN10DoublyListIiE5eraseEPNS0_4NodeE
FNL:4,175,186
FNA:4,30,_ZN10DoublyListIiE12delete_valueERKi
FNL:5,188,202
FNA:5,6,_ZN10DoublyListIiE19delete_before_valueERKi
FNL:6,20,27
FNA:6,62,_ZNK10DoublyListIiE8containsEPNS0_4NodeE
FNL:7,204,218
FNA:7,6,_ZN10DoublyListIiE18delete_after_valueERKi
FNL:8,224,233
FNA:8,98,_ZNK10DoublyListIiE4findERKi
FNL:9,239,253
FNA:9,4,_ZNK10DoublyListIiE5printEv
FNL:10,259,259
FNA:10,26,_ZNK10DoublyListIiE8get_headEv
FNL:11,260,260
FNA:11,26,_ZNK10DoublyListIiE8get_tailEv
FNL:12,31,31
FNA:12,88,_ZN10DoublyListIiEC1Ev
FNA:12,88,_ZN10DoublyListIiEC2Ev
FNL:13,33,40
FNA:13,88,_ZN10DoublyListIiED1Ev
FNA:13,88,_ZN10DoublyListIiED2Ev
FNL:14,46,56
FNA:14,206,_ZN10DoublyListIiE10push_frontERKi
FNL:15,58,68
FNA:15,374,_ZN10DoublyListIiE9push_backERKi
FNL:16,70,90
FNA:16,12,_ZN10DoublyListIiE13insert_beforeEPNS0_4NodeERKi
FNL:17,92,112
FNA:17,10,_ZN10DoublyListIiE12insert_afterEPNS0_4NodeERKi
FNF:18
FNH:18
DA:14,1188
DA:20,62
DA:21,62
DA:22,108
DA:23,102
DA:24,46
DA:26,6
DA:27,62
DA:31,176
DA:33,176
DA:34,88
DA:35,612
DA:36,524
DA:37,524
DA:38,524
DA:40,176
DA:46,206
DA:47,206
DA:48,206
DA:50,206
DA:51,202
DA:53,4
DA:55,206
DA:56,206
DA:58,374
DA:59,374
DA:60,374
DA:62,374
DA:63,304
DA:65,70
DA:67,374
DA:68,374
DA:70,12
DA:71,12
DA:72,2
DA:73,2
DA:75,10
DA:76,2
DA:77,2
DA:80,8
DA:81,8
DA:82,8
DA:84,8
DA:85,6
DA:87,2
DA:89,8
DA:90,12
DA:92,10
DA:93,10
DA:94,2
DA:95,2
DA:97,8
DA:98,2
DA:99,2
DA:102,6
DA:103,6
DA:104,6
DA:106,6
DA:107,4
DA:109,2
DA:111,6
DA:112,10
DA:118,26
DA:119,26
DA:120,2
DA:121,2
DA:124,24
DA:125,24
DA:127,24
DA:128,20
DA:130,4
DA:132,24
DA:133,26
DA:135,6
DA:136,6
DA:137,2
DA:138,2
DA:141,4
DA:142,4
DA:144,4
DA:145,2
DA:147,2
DA:149,4
DA:150,6
DA:152,46
DA:153,46
DA:154,2
DA:155,2
DA:157,44
DA:158,2
DA:159,2
DA:162,42
DA:163,28
DA:165,14
DA:167,42
DA:168,38
DA:170,4
DA:172,42
DA:173,46
DA:175,30
DA:176,30
DA:177,50
DA:178,48
DA:179,28
DA:180,28
DA:181,28
DA:183,20
DA:185,2
DA:186,30
DA:188,6
DA:189,6
DA:190,12
DA:191,12
DA:192,6
DA:193,2
DA:194,2
DA:196,4
DA:197,4
DA:199,6
DA:201,0
DA:202,6
DA:204,6
DA:205,6
DA:206,10
DA:207,10
DA:208,6
DA:209,2
DA:210,2
DA:212,4
DA:213,4
DA:215,4
DA:217,0
DA:218,6
DA:224,98
DA:225,98
DA:226,266
DA:227,226
DA:228,58
DA:229,168
DA:231,40
DA:232,40
DA:233,98
DA:239,4
DA:240,4
DA:241,2
DA:242,2
DA:245,2
DA:246,6
DA:247,4
DA:248,4
DA:249,4
DA:250,4
DA:251,4
DA:253,4
DA:259,26
DA:260,26
LF:156
LH:154
end_of_record
TN:
SF:/Users/slavavikentev/Desktop/учеба/семестр 3/прога/lab-sem-3/лаб3/include/forwardlist.hpp
FNL:0,106,118
FNA:0,6,_ZN11ForwardListIiE5eraseEPNS0_4NodeE
FNL:1,11,11
FNA:1,788,_ZN11ForwardListIiE4NodeC1ERKi
FNA:1,788,_ZN11ForwardListIiE4NodeC2ERKi
FNL:2,120,134
FNA:2,20,_ZN11ForwardListIiE14erase_by_valueERKi
FNL:3,136,152
FNA:3,8,_ZN11ForwardListIiE12erase_beforeEPNS0_4NodeE
FNL:4,154,159
FNA:4,8,_ZN11ForwardListIiE11erase_afterEPNS0_4NodeE
FNL:5,162,174
FNA:5,4,_ZNK11ForwardListIiE11print_whileEv
FNL:6,17,17
FNA:6,74,_ZN11ForwardListIiEC1Ev
FNA:6,74,_ZN11ForwardListIiEC2Ev
FNL:7,176,182
FNA:7,2,_ZNK11ForwardListIiE9print_forEv
FNL:8,184,190
FNA:8,78,_ZN11ForwardListIiE5clearEv
FNL:9,19,21
FNA:9,74,_ZN11ForwardListIiED1Ev
FNA:9,74,_ZN11ForwardListIiED2Ev
FNL:10,192,192
FNA:10,26,_ZNK11ForwardListIiE8get_headEv
FNL:11,24,28
FNA:11,208,_ZN11ForwardListIiE10push_frontERKi
FNL:12,30,40
FNA:12,564,_ZN11ForwardListIiE9push_backERKi
FNL:13,42,61
FNA:13,14,_ZN11ForwardListIiE13insert_beforeEPNS0_4NodeERKi
FNL:14,63,71
FNA:14,10,_ZN11ForwardListIiE12insert_afterEPNS0_4NodeERKi
FNL:15,74,82
FNA:15,96,_ZNK11ForwardListIiE4findERKi
FNL:16,85,90
FNA:16,28,_ZN11ForwardListIiE9pop_frontEv
FNL:17,92,104
FNA:17,6,_ZN11ForwardListIiE8pop_backEv
FNF:18
FNH:18
DA:11,1576
DA:17,148
DA:19,148
DA:20,74
DA:21,148
DA:24,208
DA:25,208
DA:26,208
DA:27,208
DA:28,208
DA:30,564
DA:31,564
DA:32,564
DA:33,60
DA:34,60
DA:36,504
DA:37,20204
DA:38,19700
DA:39,504
DA:40,564
DA:42,14
DA:43,14
DA:44,2
DA:45,2
DA:47,12
DA:48,2
DA:49,2
DA:51,10
DA:52,18
DA:53,8
DA:54,10
DA:55,2
DA:56,2
DA:58,8
DA:59,8
DA:60,8
DA:61,14
DA:63,10
DA:64,10
DA:65,2
DA:66,2
DA:68,8
DA:69,8
DA:70,8
DA:71,10
DA:74,96
DA:75,96
DA:76,676
DA:77,640
DA:78,60
DA:79,580
DA:81,36
DA:82,96
DA:85,28
DA:86,28
DA:87,26
DA:88,26
DA:89,26
DA:90,28
DA:92,6
DA:93,6
DA:94,4
DA:95,2
DA:96,2
DA:97,2
DA:99,2
DA:100,2
DA:101,0
DA:102,2
DA:103,2
DA:104,6
DA:106,6
DA:107,6
DA:108,4
DA:109,2
DA:110,2
DA:112,2
DA:113,2
DA:114,0
DA:115,2
DA:116,2
DA:117,2
DA:118,6
DA:120,20
DA:121,20
DA:122,20
DA:123,2
DA:124,2
DA:126,18
DA:127,18
DA:128,0
DA:129,18
DA:130,18
DA:131,18
DA:132,18
DA:133,18
DA:134,20
DA:136,8
DA:137,8
DA:138,6
DA:139,6
DA:140,20
DA:141,14
DA:142,14
DA:144,6
DA:145,6
DA:146,2
DA:147,2
DA:148,2
DA:149,4
DA:150,4
DA:152,8
DA:154,8
DA:155,8
DA:156,6
DA:157,6
DA:158,6
DA:159,8
DA:162,4
DA:163,4
DA:164,4
DA:165,2
DA:166,2
DA:168,6
DA:169,4
DA:170,4
DA:171,4
DA:172,4
DA:174,4
DA:176,2
DA:177,6
DA:178,4
DA:179,4
DA:180,4
DA:181,4
DA:182,2
DA:184,78
DA:185,804
DA:186,726
DA:187,726
DA:188,726
DA:190,78
DA:192,26
LF:143
LH:140
end_of_record
TN:
SF:/Users/slavavikentev/Desktop/учеба/семестр 3/прога/lab-sem-3/лаб3/include/fullbinarytree.hpp
FNL:0,12,12
FNA:0,660,_ZN3BST4NodeC1Ei
FNA:0,660,_ZN3BST4NodeC2Ei
FNL:1,18
FNA:1,6,_ZN3BST9PrintLineD1Ev
FNA:1,6,_ZN3BST9PrintLineD2Ev
FNL:2,21,21
FNA:2,6,_ZN3BST9PrintLineC1ERKNSt3__112basic_stringIcNS1_11char_traitsIcEENS1_9allocatorIcEEEE
FNA:2,6,_ZN3BST9PrintLineC2ERKNSt3__112basic_stringIcNS1_11char_traitsIcEENS1_9allocatorIcEEEE
FNL:3,25,46
FNA:3,6,_ZNK3BST16build_tree_linesEPNS_4NodeEbRKNSt3__112basic_stringIcNS2_11char_traitsIcEENS2_9allocatorIcEEEE
FNL:4,49,54
FNA:4,1344,_ZN3BST5clearEPNS_4NodeE
FNL:5,57,57
FNA:5,24,_ZN3BSTC1Ev
FNA:5,24,_ZN3BSTC2Ev
FNL:6,58,58
FNA:6,24,_ZN3BSTD1Ev
FNA:6,24,_ZN3BSTD2Ev
FNL:7,60,69
FNA:7,660,_ZN3BST6insertEi
FNL:8,71,79
FNA:8,658,_ZNK3BST4findEi
FNL:9,81,95
FNA:9,4,_ZNK3BST12print_prettyEv
FNF:10
FNH:10
DA:12,1320
DA:21,12
DA:25,6
DA:26,6
DA:28,6
DA:29,6
DA:30,6
DA:32,6
DA:33,2
DA:34,2
DA:35,4
DA:36,2
DA:37,6
DA:38,0
DA:39,0
DA:40,4
DA:41,0
DA:42,0
DA:43,0
DA:45,6
DA:46,6
DA:49,1344
DA:50,1344
DA:51,660
DA:52,660
DA:53,660
DA:54,1344
DA:57,48
DA:58,48
DA:60,660
DA:61,660
DA:62,25504
DA:63,24844
DA:64,9930
DA:66,14914
DA:68,660
DA:69,660
DA:71,658
DA:72,658
DA:73,25604
DA:74,25496
DA:75,24946
DA:76,14916
DA:78,108
DA:79,658
DA:81,4
DA:82,4
DA:83,2
DA:84,2
DA:87,2
DA:88,2
DA:89,8
DA:90,6
DA:91,6
DA:92,6
DA:93,6
DA:95,4
LF:57
LH:52
end_of_record
TN:
SF:/Users/slavavikentev/Desktop/учеба/семестр 3/прога/lab-sem-3/лаб3/include/hashtable.hpp
FNL:0,110,110
FNA:0,12,_ZNK9HashTableINSt3__112basic_stringIcNS0_11char_traitsIcEENS0_9allocatorIcEEEEiE8get_sizeEv
FNA:0,2,_ZNK9HashTableIiiE8get_sizeEv
FNL:1,111,111
FNA:1,4,_ZNK9HashTableINSt3__112basic_stringIcNS0_11char_traitsIcEENS0_9allocatorIcEEEEiE12get_capacityEv
FNL:2,14,14
FNA:2,2652,_ZN8HashNodeINSt3__112basic_stringIcNS0_11char_traitsIcEENS0_9allocatorIcEEEEiEC1ERKS6_RKi
FNA:2,2652,_ZN8HashNodeINSt3__112basic_stringIcNS0_11char_traitsIcEENS0_9allocatorIcEEEEiEC2ERKS6_RKi
FNA:2,6,_ZN8HashNodeIiNSt3__112basic_stringIcNS0_11char_traitsIcEENS0_9allocatorIcEEEEEC1ERKiRKS6_
FNA:2,6,_ZN8HashNodeIiNSt3__112basic_stringIcNS0_11char_traitsIcEENS0_9allocatorIcEEEEEC2ERKiRKS6_
FNA:2,220,_ZN8HashNodeIiiEC1ERKiS2_
FNA:2,220,_ZN8HashNodeIiiEC2ERKiS2_
FNL:3,26,27
FNA:3,5166,_ZNK9HashTableINSt3__112basic_stringIcNS0_11char_traitsIcEENS0_9allocatorIcEEEEiE4hashERKS6_
FNA:3,10,_ZNK9HashTableIiNSt3__112basic_stringIcNS0_11char_traitsIcEENS0_9allocatorIcEEEEE4hashERKi
FNA:3,440,_ZNK9HashTableIiiE4hashERKi
FNL:4,31,33
FNA:4,22,_ZN9HashTableINSt3__112basic_stringIcNS0_11char_traitsIcEENS0_9allocatorIcEEEEiEC1Ei
FNA:4,22,_ZN9HashTableINSt3__112basic_stringIcNS0_11char_traitsIcEENS0_9allocatorIcEEEEiEC2Ei
FNA:4,2,_ZN9HashTableIiNSt3__112basic_stringIcNS0_11char_traitsIcEENS0_9allocatorIcEEEEEC1Ei
FNA:4,2,_ZN9HashTableIiNSt3__112basic_stringIcNS0_11char_traitsIcEENS0_9allocatorIcEEEEEC2Ei
FNA:4,4,_ZN9HashTableIiiEC1Ei
FNA:4,4,_ZN9HashTableIiiEC2Ei
FNL:5,35,44
FNA:5,22,_ZN9HashTableINSt3__112basic_stringIcNS0_11char_traitsIcEENS0_9allocatorIcEEEEiED1Ev
FNA:5,22,_ZN9HashTableINSt3__112basic_stringIcNS0_11char_traitsIcEENS0_9allocatorIcEEEEiED2Ev
FNA:5,2,_ZN9HashTableIiNSt3__112basic_stringIcNS0_11char_traitsIcEENS0_9allocatorIcEEEEED1Ev
FNA:5,2,_ZN9HashTableIiNSt3__112basic_stringIcNS0_11char_traitsIcEENS0_9allocatorIcEEEEED2Ev
FNA:5,4,_ZN9HashTableIiiED1Ev
FNA:5,4,_ZN9HashTableIiiED2Ev
FNL:6,47,61
FNA:6,2852,_ZN9HashTableINSt3__112basic_stringIcNS0_11char_traitsIcEENS0_9allocatorIcEEEEiE6insertERKS6_RKi
FNA:6,6,_ZN9HashTableIiNSt3__112basic_stringIcNS0_11char_traitsIcEENS0_9allocatorIcEEEEE6insertERKiRKS6_
FNA:6,220,_ZN9HashTableIiiE6insertERKiS2_
FNL:7,64,75
FNA:7,2210,_ZNK9HashTableINSt3__112basic_stringIcNS0_11char_traitsIcEENS0_9allocatorIcEEEEiE4findERKS6_Ri
FNA:7,4,_ZNK9HashTableIiNSt3__112basic_stringIcNS0_11char_traitsIcEENS0_9allocatorIcEEEEE4findERKiRS6_
FNA:7,220,_ZNK9HashTableIiiE4findERKiRi
FNL:8,78,95
FNA:8,104,_ZN9HashTableINSt3__112basic_stringIcNS0_11char_traitsIcEENS0_9allocatorIcEEEEiE6removeERKS6_
FNL:9,8,14
FNA:9,2652,_ZN8HashNodeINSt3__112basic_stringIcNS0_11char_traitsIcEENS0_9allocatorIcEEEEiED1Ev
FNA:9,2652,_ZN8HashNodeINSt3__112basic_stringIcNS0_11char_traitsIcEENS0_9allocatorIcEEEEiED2Ev
FNA:9,6,_ZN8HashNodeIiNSt3__112basic_stringIcNS0_11char_traitsIcEENS0_9allocatorIcEEEEED1Ev
FNA:9,6,_ZN8HashNodeIiNSt3__112basic_stringIcNS0_11char_traitsIcEENS0_9allocatorIcEEEEED2Ev
FNL:10,98,108
FNA:10,2,_ZNK9HashTableINSt3__112basic_stringIcNS0_11char_traitsIcEENS0_9allocatorIcEEEEiE5printEv
FNF:11
FNH:11
DA:14,5756
DA:26,5616
DA:27,5616
DA:31,56
DA:32,28
DA:33,56
DA:35,56
DA:36,564
DA:37,536
DA:38,3312
DA:39,2776
DA:40,2776
DA:41,2776
DA:43,536
DA:44,56
DA:47,3078
DA:48,3078
DA:49,3078
DA:50,67542
DA:51,64664
DA:52,200
DA:53,200
DA:55,64464
DA:57,2878
DA:58,2878
DA:59,2878
DA:60,2878
DA:61,3078
DA:64,2434
DA:65,2434
DA:66,2434
DA:67,66126
DA:68,66022
DA:69,2330
DA:70,2330
DA:72,63692
DA:74,104
DA:75,2434
DA:78,104
DA:79,104
DA:80,104
DA:81,104
DA:83,538
DA:84,536
DA:85,102
DA:86,2
DA:87,102
DA:88,102
DA:89,102
DA:91,434
DA:92,434
DA:94,2
DA:95,104
DA:98,2
DA:99,34
DA:100,32
DA:101,32
DA:102,36
DA:103,4
DA:104,4
DA:106,32
DA:107,32
DA:108,2
DA:110,14
DA:111,4
LF:65
LH:65
end_of_record
TN:
SF:/Users/slavavikentev/Desktop/учеба/семестр 3/прога/lab-sem-3/лаб3/include/queue.hpp
FNL:0,14,28
FNA:0,76,_ZN5QueueIiE6resizeEv
FNL:1,31,31
FNA:1,24,_ZN5QueueIiEC1Ev
FNA:1,24,_ZN5QueueIiEC2Ev
FNL:2,33,35
FNA:2,24,_ZN5QueueIiED1Ev
FNA:2,24,_ZN5QueueIiED2Ev
FNL:3,37,44
FNA:3,22088,_ZN5QueueIiE4pushERKi
FNL:4,46,60
FNA:4,22086,_ZN5QueueIiE3popEv
FNL:5,62,63
FNA:5,8,_ZNK5QueueIiE8is_emptyEv
FNL:6,66,67
FNA:6,18,_ZNK5QueueIiE8get_sizeEv
FNL:7,70,80
FNA:7,4,_ZNK5QueueIiE5printEv
FNF:8
FNH:8
DA:14,76
DA:15,76
DA:16,76
DA:18,34944
DA:19,34868
DA:20,34868
DA:21,34868
DA:23,76
DA:24,76
DA:25,76
DA:26,76
DA:27,76
DA:28,76
DA:31,48
DA:33,48
DA:34,24
DA:35,48
DA:37,22088
DA:38,22088
DA:39,76
DA:40,76
DA:41,22088
DA:42,22088
DA:43,22088
DA:44,22088
DA:46,22086
DA:47,22086
DA:48,2
DA:49,2
DA:51,22084
DA:52,22084
DA:53,22084
DA:55,22084
DA:56,16
DA:57,16
DA:59,22084
DA:60,22086
DA:62,8
DA:63,8
DA:66,18
DA:67,18
DA:70,4
DA:71,4
DA:72,2
DA:73,2
DA:75,6
DA:76,4
DA:77,4
DA:78,4
DA:79,2
DA:80,4
LF:51
LH:51
end_of_record
TN:
SF:/Users/slavavikentev/Desktop/учеба/семестр 3/прога/lab-sem-3/лаб3/include/stack.hpp
FNL:0,12,12
FNA:0,2870,_ZN5StackIiE9StackNodeC1Ei
FNA:0,2870,_ZN5StackIiE9StackNodeC2Ei
FNL:1,19,19
FNA:1,52,_ZN5StackIiEC1Ev
FNA:1,52,_ZN5StackIiEC2Ev
FNL:2,21,23
FNA:2,52,_ZN5StackIiED1Ev
FNA:2,52,_ZN5StackIiED2Ev
FNL:3,25,30
FNA:3,2870,_ZN5StackIiE4pushERKi
FNL:4,32,43
FNA:4,2226,_ZN5StackIiE3popEv
FNL:5,45,51
FNA:5,14,_ZNK5StackIiE4peekEv
FNL:6,53,54
FNA:6,2258,_ZNK5StackIiE8is_emptyEv
FNL:7,57,58
FNA:7,22,_ZNK5StackIiE4sizeEv
FNL:8,61,68
FNA:8,2,_ZNK5StackIiE5printEv
FNL:9,70,77
FNA:9,68,_ZN5StackIiE5clearEv
FNL:10,80,97
FNA:10,12,_ZN5StackIiE9copy_fromERKS0_
FNF:11
FNH:11
DA:12,5740
DA:19,104
DA:21,104
DA:22,52
DA:23,104
DA:25,2870
DA:26,2870
DA:27,2870
DA:28,2870
DA:29,2870
DA:30,2870
DA:32,2226
DA:33,2226
DA:34,2
DA:35,2
DA:37,2224
DA:38,2224
DA:39,2224
DA:40,2224
DA:41,2224
DA:42,2224
DA:43,2226
DA:45,14
DA:46,14
DA:47,2
DA:48,2
DA:50,12
DA:51,14
DA:53,2258
DA:54,2258
DA:57,22
DA:58,22
DA:61,2
DA:62,2
DA:63,6
DA:64,4
DA:65,4
DA:67,2
DA:68,2
DA:70,68
DA:71,714
DA:72,646
DA:73,646
DA:74,646
DA:76,68
DA:77,68
DA:80,12
DA:81,12
DA:84,12
DA:85,12
DA:87,224
DA:88,212
DA:89,212
DA:92,12
DA:93,224
DA:94,212
DA:95,212
DA:97,12
LF:58
LH:58
end_of_record
