TN:
SF:/Applications/Xcode.app/Contents/Developer/Platforms/MacOSX.platform/Developer/SDKs/MacOSX.sdk/usr/include/c++/v1/__algorithm/comp.h
FNL:0,40,41
FNA:0,0,_ZNKSt3__16__lessIvvEclB8ne180100IiiEEbRKT_RKT0_
FNA:0,86,_ZNKSt3__16__lessIvvEclB8ne180100ImmEEbRKT_RKT0_
FNF:1
FNH:1
DA:40,86
DA:41,86
LF:2
LH:2
end_of_record
TN:
SF:/Applications/Xcode.app/Contents/Developer/Platforms/MacOSX.platform/Developer/SDKs/MacOSX.sdk/usr/include/c++/v1/__algorithm/copy.h
FNL:0,103,104
FNA:0,24,_ZNKSt3__114__copy_trivialclB8ne180100IKccLi0EEENS_4pairIPT_PT0_EES5_S5_S7_
FNA:0,2,_ZNKSt3__114__copy_trivialclB8ne180100IKiiLi0EEENS_4pairIPT_PT0_EES5_S5_S7_
FNL:1,110,112
FNA:1,24,_ZNSt3__16__copyB8ne180100INS_17_ClassicAlgPolicyEPKcS3_PcEENS_4pairIT0_T2_EES6_T1_S7_
FNA:1,2,_ZNSt3__16__copyB8ne180100INS_17_ClassicAlgPolicyEPKiS3_PiEENS_4pairIT0_T2_EES6_T1_S7_
FNL:2,117,118
FNA:2,24,_ZNSt3__14copyB8ne180100IPKcPcEET0_T_S5_S4_
FNA:2,2,_ZNSt3__14copyB8ne180100IPKiPiEET0_T_S5_S4_
FNF:3
FNH:3
DA:103,26
DA:104,26
DA:110,26
DA:111,26
DA:112,26
DA:117,26
DA:118,26
LF:7
LH:7
end_of_record
TN:
SF:/Applications/Xcode.app/Contents/Developer/Platforms/MacOSX.platform/Developer/SDKs/MacOSX.sdk/usr/include/c++/v1/__algorithm/copy_move_common.h
FNL:0,107,111
FNA:0,24,_ZNSt3__121__unwrap_and_dispatchB8ne180100INS_10__overloadINS_11__copy_loopINS_17_ClassicAlgPolicyEEENS_14__copy_trivialEEEPKcS8_PcLi0EEENS_4pairIT0_T2_EESB_T1_SC_
FNA:0,2,_ZNSt3__121__unwrap_and_dispatchB8ne180100INS_10__overloadINS_11__copy_loopINS_17_ClassicAlgPolicyEEENS_14__copy_trivialEEEPKiS8_PiLi0EEENS_4pairIT0_T2_EESB_T1_SC_
FNA:0,22,_ZNSt3__121__unwrap_and_dispatchB8ne180100INS_10__overloadINS_11__move_loopINS_17_ClassicAlgPolicyEEENS_14__move_trivialEEENS_16reverse_iteratorIPP8HashNodeINS_12basic_stringIcNS_11char_traitsIcEENS_9allocatorIcEEEEiEEESI_SI_Li0EEENS_4pairIT0_T2_EESK_T1_SL_
FNA:0,2,_ZNSt3__121__unwrap_and_dispatchB8ne180100INS_10__overloadINS_11__move_loopINS_17_ClassicAlgPolicyEEENS_14__move_trivialEEENS_16reverse_iteratorIPP8HashNodeIiNS_12basic_stringIcNS_11char_traitsIcEENS_9allocatorIcEEEEEEESI_SI_Li0EEENS_4pairIT0_T2_EESK_T1_SL_
FNA:0,4,_ZNSt3__121__unwrap_and_dispatchB8ne180100INS_10__overloadINS_11__move_loopINS_17_ClassicAlgPolicyEEENS_14__move_trivialEEENS_16reverse_iteratorIPP8HashNodeIiiEEESC_SC_Li0EEENS_4pairIT0_T2_EESE_T1_SF_
FNA:0,14,_ZNSt3__121__unwrap_and_dispatchB8ne180100INS_10__overloadINS_11__move_loopINS_17_ClassicAlgPolicyEEENS_14__move_trivialEEENS_16reverse_iteratorIPiEES9_S9_Li0EEENS_4pairIT0_T2_EESB_T1_SC_
FNL:1,131,133
FNA:1,24,_ZNSt3__123__dispatch_copy_or_moveB8ne180100INS_17_ClassicAlgPolicyENS_11__copy_loopIS1_EENS_14__copy_trivialEPKcS6_PcEENS_4pairIT2_T4_EES9_T3_SA_
FNA:1,2,_ZNSt3__123__dispatch_copy_or_moveB8ne180100INS_17_ClassicAlgPolicyENS_11__copy_loopIS1_EENS_14__copy_trivialEPKiS6_PiEENS_4pairIT2_T4_EES9_T3_SA_
FNA:1,22,_ZNSt3__123__dispatch_copy_or_moveB8ne180100INS_17_ClassicAlgPolicyENS_11__move_loopIS1_EENS_14__move_trivialENS_16reverse_iteratorIPP8HashNodeINS_12basic_stringIcNS_11char_traitsIcEENS_9allocatorIcEEEEiEEESG_SG_EENS_4pairIT2_T4_EESI_T3_SJ_
FNA:1,2,_ZNSt3__123__dispatch_copy_or_moveB8ne180100INS_17_ClassicAlgPolicyENS_11__move_loopIS1_EENS_14__move_trivialENS_16reverse_iteratorIPP8HashNodeIiNS_12basic_stringIcNS_11char_traitsIcEENS_9allocatorIcEEEEEEESG_SG_EENS_4pairIT2_T4_EESI_T3_SJ_
FNA:1,4,_ZNSt3__123__dispatch_copy_or_moveB8ne180100INS_17_ClassicAlgPolicyENS_11__move_loopIS1_EENS_14__move_trivialENS_16reverse_iteratorIPP8HashNodeIiiEEESA_SA_EENS_4pairIT2_T4_EESC_T3_SD_
FNA:1,14,_ZNSt3__123__dispatch_copy_or_moveB8ne180100INS_17_ClassicAlgPolicyENS_11__move_loopIS1_EENS_14__move_trivialENS_16reverse_iteratorIPiEES7_S7_EENS_4pairIT2_T4_EES9_T3_SA_
FNL:2,63,68
FNA:2,24,_ZNSt3__119__copy_trivial_implB8ne180100IKccEENS_4pairIPT_PT0_EES4_S4_S6_
FNA:2,2,_ZNSt3__119__copy_trivial_implB8ne180100IKiiEENS_4pairIPT_PT0_EES4_S4_S6_
FNF:3
FNH:3
DA:63,26
DA:64,26
DA:66,26
DA:68,26
DA:107,68
DA:108,68
DA:109,68
DA:110,136
DA:111,68
DA:131,68
DA:133,68
LF:11
LH:11
end_of_record
TN:
SF:/Applications/Xcode.app/Contents/Developer/Platforms/MacOSX.platform/Developer/SDKs/MacOSX.sdk/usr/include/c++/v1/__algorithm/copy_n.h
FNL:0,51,55
FNA:0,24,_ZNSt3__16copy_nB8ne180100IPKcmPcLi0EEET1_T_T0_S4_
FNF:1
FNH:1
DA:51,24
DA:54,24
DA:55,24
LF:3
LH:3
end_of_record
TN:
SF:/Applications/Xcode.app/Contents/Developer/Platforms/MacOSX.platform/Developer/SDKs/MacOSX.sdk/usr/include/c++/v1/__algorithm/fill_n.h
FNL:0,26,29
FNA:0,12,_ZNSt3__18__fill_nB8ne180100IPcmcEET_S2_T0_RKT1_
FNL:1,34,35
FNA:1,12,_ZNSt3__16fill_nB8ne180100IPcmcEET_S2_T0_RKT1_
FNF:2
FNH:2
DA:26,12
DA:27,24
DA:28,12
DA:29,12
DA:34,12
DA:35,12
LF:6
LH:6
end_of_record
TN:
SF:/Applications/Xcode.app/Contents/Developer/Platforms/MacOSX.platform/Developer/SDKs/MacOSX.sdk/usr/include/c++/v1/__algorithm/iterator_operations.h
FNL:0,102,108
FNA:0,0,_ZNSt3__18_IterOpsINS_17_ClassicAlgPolicyEE25__validate_iter_referenceB8ne180100IRNS_16reverse_iteratorIPP8HashNodeINS_12basic_stringIcNS_11char_traitsIcEENS_9allocatorIcEEEEiEEEEEvv
FNA:0,0,_ZNSt3__18_IterOpsINS_17_ClassicAlgPolicyEE25__validate_iter_referenceB8ne180100IRNS_16reverse_iteratorIPP8HashNodeIiNS_12basic_stringIcNS_11char_traitsIcEENS_9allocatorIcEEEEEEEEEvv
FNA:0,0,_ZNSt3__18_IterOpsINS_17_ClassicAlgPolicyEE25__validate_iter_referenceB8ne180100IRNS_16reverse_iteratorIPP8HashNodeIiiEEEEEvv
FNA:0,126,_ZNSt3__18_IterOpsINS_17_ClassicAlgPolicyEE25__validate_iter_referenceB8ne180100IRNS_16reverse_iteratorIPiEEEEvv
FNL:1,116,119
FNA:1,0,_ZNSt3__18_IterOpsINS_17_ClassicAlgPolicyEE11__iter_moveB8ne180100IRNS_16reverse_iteratorIPP8HashNodeINS_12basic_stringIcNS_11char_traitsIcEENS_9allocatorIcEEEEiEEELi0EEEDTclsr3stdE4movedeclsr3stdE7declvalIRT_EEEEOSH_
FNA:1,0,_ZNSt3__18_IterOpsINS_17_ClassicAlgPolicyEE11__iter_moveB8ne180100IRNS_16reverse_iteratorIPP8HashNodeIiNS_12basic_stringIcNS_11char_traitsIcEENS_9allocatorIcEEEEEEELi0EEEDTclsr3stdE4movedeclsr3stdE7declvalIRT_EEEEOSH_
FNA:1,0,_ZNSt3__18_IterOpsINS_17_ClassicAlgPolicyEE11__iter_moveB8ne180100IRNS_16reverse_iteratorIPP8HashNodeIiiEEELi0EEEDTclsr3stdE4movedeclsr3stdE7declvalIRT_EEEEOSB_
FNA:1,126,_ZNSt3__18_IterOpsINS_17_ClassicAlgPolicyEE11__iter_moveB8ne180100IRNS_16reverse_iteratorIPiEELi0EEEDTclsr3stdE4movedeclsr3stdE7declvalIRT_EEEEOS8_
FNF:2
FNH:2
DA:102,126
DA:108,126
DA:116,126
DA:117,126
DA:119,126
LF:5
LH:5
end_of_record
TN:
SF:/Applications/Xcode.app/Contents/Developer/Platforms/MacOSX.platform/Developer/SDKs/MacOSX.sdk/usr/include/c++/v1/__algorithm/max.h
FNL:0,29,30
FNA:0,0,_ZNSt3__13maxB8ne180100IiNS_6__lessIvvEEEERKT_S5_S5_T0_
FNA:0,42,_ZNSt3__13maxB8ne180100ImNS_6__lessIvvEEEERKT_S5_S5_T0_
FNL:1,35,36
FNA:1,0,_ZNSt3__13maxB8ne180100IiEERKT_S3_S3_
FNA:1,42,_ZNSt3__13maxB8ne180100ImEERKT_S3_S3_
FNF:2
FNH:2
DA:29,42
DA:30,42
DA:35,42
DA:36,42
LF:4
LH:4
end_of_record
TN:
SF:/Applications/Xcode.app/Contents/Developer/Platforms/MacOSX.platform/Developer/SDKs/MacOSX.sdk/usr/include/c++/v1/__algorithm/min.h
FNL:0,29,30
FNA:0,44,_ZNSt3__13minB8ne180100ImNS_6__lessIvvEEEERKT_S5_S5_T0_
FNL:1,35,36
FNA:1,44,_ZNSt3__13minB8ne180100ImEERKT_S3_S3_
FNF:2
FNH:2
DA:29,44
DA:30,44
DA:35,44
DA:36,44
LF:4
LH:4
end_of_record
TN:
SF:/Applications/Xcode.app/Contents/Developer/Platforms/MacOSX.platform/Developer/SDKs/MacOSX.sdk/usr/include/c++/v1/__algorithm/move.h
FNL:0,111,113
FNA:0,22,_ZNSt3__16__moveB8ne180100INS_17_ClassicAlgPolicyENS_16reverse_iteratorIPP8HashNodeINS_12basic_stringIcNS_11char_traitsIcEENS_9allocatorIcEEEEiEEESD_SD_EENS_4pairIT0_T2_EESF_T1_SG_
FNA:0,2,_ZNSt3__16__moveB8ne180100INS_17_ClassicAlgPolicyENS_16reverse_iteratorIPP8HashNodeIiNS_12basic_stringIcNS_11char_traitsIcEENS_9allocatorIcEEEEEEESD_SD_EENS_4pairIT0_T2_EESF_T1_SG_
FNA:0,4,_ZNSt3__16__moveB8ne180100INS_17_ClassicAlgPolicyENS_16reverse_iteratorIPP8HashNodeIiiEEES7_S7_EENS_4pairIT0_T2_EES9_T1_SA_
FNA:0,14,_ZNSt3__16__moveB8ne180100INS_17_ClassicAlgPolicyENS_16reverse_iteratorIPiEES4_S4_EENS_4pairIT0_T2_EES6_T1_S7_
FNL:1,118,122
FNA:1,22,_ZNSt3__14moveB8ne180100INS_16reverse_iteratorIPP8HashNodeINS_12basic_stringIcNS_11char_traitsIcEENS_9allocatorIcEEEEiEEESC_EET0_T_SE_SD_
FNA:1,2,_ZNSt3__14moveB8ne180100INS_16reverse_iteratorIPP8HashNodeIiNS_12basic_stringIcNS_11char_traitsIcEENS_9allocatorIcEEEEEEESC_EET0_T_SE_SD_
FNA:1,4,_ZNSt3__14moveB8ne180100INS_16reverse_iteratorIPP8HashNodeIiiEEES6_EET0_T_S8_S7_
FNA:1,14,_ZNSt3__14moveB8ne180100INS_16reverse_iteratorIPiEES3_EET0_T_S5_S4_
FNL:2,40,46
FNA:2,22,_ZNKSt3__111__move_loopINS_17_ClassicAlgPolicyEEclB8ne180100INS_16reverse_iteratorIPP8HashNodeINS_12basic_stringIcNS_11char_traitsIcEENS_9allocatorIcEEEEiEEESF_SF_EENS_4pairIT_T1_EESH_T0_SI_
FNA:2,2,_ZNKSt3__111__move_loopINS_17_ClassicAlgPolicyEEclB8ne180100INS_16reverse_iteratorIPP8HashNodeIiNS_12basic_stringIcNS_11char_traitsIcEENS_9allocatorIcEEEEEEESF_SF_EENS_4pairIT_T1_EESH_T0_SI_
FNA:2,4,_ZNKSt3__111__move_loopINS_17_ClassicAlgPolicyEEclB8ne180100INS_16reverse_iteratorIPP8HashNodeIiiEEES9_S9_EENS_4pairIT_T1_EESB_T0_SC_
FNA:2,14,_ZNKSt3__111__move_loopINS_17_ClassicAlgPolicyEEclB8ne180100INS_16reverse_iteratorIPiEES6_S6_EENS_4pairIT_T1_EES8_T0_S9_
FNF:3
FNH:3
DA:40,42
DA:41,168
DA:42,126
DA:43,126
DA:44,126
DA:46,42
DA:111,42
DA:112,42
DA:113,42
DA:118,42
DA:122,42
LF:11
LH:11
end_of_record
TN:
SF:/Applications/Xcode.app/Contents/Developer/Platforms/MacOSX.platform/Developer/SDKs/MacOSX.sdk/usr/include/c++/v1/__algorithm/unwrap_iter.h
FNL:0,39,39
FNA:0,44,_ZNSt3__118__unwrap_iter_implINS_16reverse_iteratorIPP8HashNodeINS_12basic_stringIcNS_11char_traitsIcEENS_9allocatorIcEEEEiEEELb0EE8__rewrapB8ne180100ESC_SC_
FNA:0,4,_ZNSt3__118__unwrap_iter_implINS_16reverse_iteratorIPP8HashNodeIiNS_12basic_stringIcNS_11char_traitsIcEENS_9allocatorIcEEEEEEELb0EE8__rewrapB8ne180100ESC_SC_
FNA:0,8,_ZNSt3__118__unwrap_iter_implINS_16reverse_iteratorIPP8HashNodeIiiEEELb0EE8__rewrapB8ne180100ES6_S6_
FNA:0,28,_ZNSt3__118__unwrap_iter_implINS_16reverse_iteratorIPiEELb0EE8__rewrapB8ne180100ES3_S3_
FNL:1,40,40
FNA:1,66,_ZNSt3__118__unwrap_iter_implINS_16reverse_iteratorIPP8HashNodeINS_12basic_stringIcNS_11char_traitsIcEENS_9allocatorIcEEEEiEEELb0EE8__unwrapB8ne180100ESC_
FNA:1,6,_ZNSt3__118__unwrap_iter_implINS_16reverse_iteratorIPP8HashNodeIiNS_12basic_stringIcNS_11char_traitsIcEENS_9allocatorIcEEEEEEELb0EE8__unwrapB8ne180100ESC_
FNA:1,12,_ZNSt3__118__unwrap_iter_implINS_16reverse_iteratorIPP8HashNodeIiiEEELb0EE8__unwrapB8ne180100ES6_
FNA:1,42,_ZNSt3__118__unwrap_iter_implINS_16reverse_iteratorIPiEELb0EE8__unwrapB8ne180100ES3_
FNL:2,51,52
FNA:2,24,_ZNSt3__118__unwrap_iter_implIPKcLb1EE8__rewrapB8ne180100ES2_S2_
FNA:2,2,_ZNSt3__118__unwrap_iter_implIPKiLb1EE8__rewrapB8ne180100ES2_S2_
FNA:2,24,_ZNSt3__118__unwrap_iter_implIPcLb1EE8__rewrapB8ne180100ES1_S1_
FNA:2,4,_ZNSt3__118__unwrap_iter_implIPiLb1EE8__rewrapB8ne180100ES1_S1_
FNL:3,55,56
FNA:3,48,_ZNSt3__118__unwrap_iter_implIPKcLb1EE8__unwrapB8ne180100ES2_
FNA:3,8,_ZNSt3__118__unwrap_iter_implIPKiLb1EE8__unwrapB8ne180100ES2_
FNA:3,24,_ZNSt3__118__unwrap_iter_implIPcLb1EE8__unwrapB8ne180100ES1_
FNA:3,4,_ZNSt3__118__unwrap_iter_implIPiLb1EE8__unwrapB8ne180100ES1_
FNL:4,64,65
FNA:4,66,_ZNSt3__113__unwrap_iterB8ne180100INS_16reverse_iteratorIPP8HashNodeINS_12basic_stringIcNS_11char_traitsIcEENS_9allocatorIcEEEEiEEENS_18__unwrap_iter_implISC_Lb0EEELi0EEEDTclsrT0_8__unwrapclsr3stdE7declvalIT_EEEESG_
FNA:4,6,_ZNSt3__113__unwrap_iterB8ne180100INS_16reverse_iteratorIPP8HashNodeIiNS_12basic_stringIcNS_11char_traitsIcEENS_9allocatorIcEEEEEEENS_18__unwrap_iter_implISC_Lb0EEELi0EEEDTclsrT0_8__unwrapclsr3stdE7declvalIT_EEEESG_
FNA:4,12,_ZNSt3__113__unwrap_iterB8ne180100INS_16reverse_iteratorIPP8HashNodeIiiEEENS_18__unwrap_iter_implIS6_Lb0EEELi0EEEDTclsrT0_8__unwrapclsr3stdE7declvalIT_EEEESA_
FNA:4,42,_ZNSt3__113__unwrap_iterB8ne180100INS_16reverse_iteratorIPiEENS_18__unwrap_iter_implIS3_Lb0EEELi0EEEDTclsrT0_8__unwrapclsr3stdE7declvalIT_EEEES7_
FNA:4,48,_ZNSt3__113__unwrap_iterB8ne180100IPKcNS_18__unwrap_iter_implIS2_Lb1EEELi0EEEDTclsrT0_8__unwrapclsr3stdE7declvalIT_EEEES6_
FNA:4,8,_ZNSt3__113__unwrap_iterB8ne180100IPKiNS_18__unwrap_iter_implIS2_Lb1EEELi0EEEDTclsrT0_8__unwrapclsr3stdE7declvalIT_EEEES6_
FNA:4,24,_ZNSt3__113__unwrap_iterB8ne180100IPcNS_18__unwrap_iter_implIS1_Lb1EEELi0EEEDTclsrT0_8__unwrapclsr3stdE7declvalIT_EEEES5_
FNA:4,4,_ZNSt3__113__unwrap_iterB8ne180100IPiNS_18__unwrap_iter_implIS1_Lb1EEELi0EEEDTclsrT0_8__unwrapclsr3stdE7declvalIT_EEEES5_
FNL:5,77,78
FNA:5,44,_ZNSt3__113__rewrap_iterB8ne180100INS_16reverse_iteratorIPP8HashNodeINS_12basic_stringIcNS_11char_traitsIcEENS_9allocatorIcEEEEiEEESC_NS_18__unwrap_iter_implISC_Lb0EEEEET_SF_T0_
FNA:5,4,_ZNSt3__113__rewrap_iterB8ne180100INS_16reverse_iteratorIPP8HashNodeIiNS_12basic_stringIcNS_11char_traitsIcEENS_9allocatorIcEEEEEEESC_NS_18__unwrap_iter_implISC_Lb0EEEEET_SF_T0_
FNA:5,8,_ZNSt3__113__rewrap_iterB8ne180100INS_16reverse_iteratorIPP8HashNodeIiiEEES6_NS_18__unwrap_iter_implIS6_Lb0EEEEET_S9_T0_
FNA:5,28,_ZNSt3__113__rewrap_iterB8ne180100INS_16reverse_iteratorIPiEES3_NS_18__unwrap_iter_implIS3_Lb0EEEEET_S6_T0_
FNA:5,24,_ZNSt3__113__rewrap_iterB8ne180100IPKcS2_NS_18__unwrap_iter_implIS2_Lb1EEEEET_S5_T0_
FNA:5,2,_ZNSt3__113__rewrap_iterB8ne180100IPKiS2_NS_18__unwrap_iter_implIS2_Lb1EEEEET_S5_T0_
FNA:5,24,_ZNSt3__113__rewrap_iterB8ne180100IPcS1_NS_18__unwrap_iter_implIS1_Lb1EEEEET_S4_T0_
FNA:5,4,_ZNSt3__113__rewrap_iterB8ne180100IPiS1_NS_18__unwrap_iter_implIS1_Lb1EEEEET_S4_T0_
FNF:6
FNH:6
DA:39,84
DA:40,126
DA:51,54
DA:52,54
DA:55,84
DA:56,84
DA:64,210
DA:65,210
DA:77,138
DA:78,138
LF:10
LH:10
end_of_record
TN:
SF:/Applications/Xcode.app/Contents/Developer/Platforms/MacOSX.platform/Developer/SDKs/MacOSX.sdk/usr/include/c++/v1/__algorithm/unwrap_range.h
FNL:0,85,86
FNA:0,22,_ZNSt3__114__unwrap_rangeB8ne180100INS_16reverse_iteratorIPP8HashNodeINS_12basic_stringIcNS_11char_traitsIcEENS_9allocatorIcEEEEiEEESC_EENS_4pairIT0_SE_EET_SG_
FNA:0,2,_ZNSt3__114__unwrap_rangeB8ne180100INS_16reverse_iteratorIPP8HashNodeIiNS_12basic_stringIcNS_11char_traitsIcEENS_9allocatorIcEEEEEEESC_EENS_4pairIT0_SE_EET_SG_
FNA:0,4,_ZNSt3__114__unwrap_rangeB8ne180100INS_16reverse_iteratorIPP8HashNodeIiiEEES6_EENS_4pairIT0_S8_EET_SA_
FNA:0,14,_ZNSt3__114__unwrap_rangeB8ne180100INS_16reverse_iteratorIPiEES3_EENS_4pairIT0_S5_EET_S7_
FNA:0,24,_ZNSt3__114__unwrap_rangeB8ne180100IPKcS2_EENS_4pairIT0_S4_EET_S6_
FNA:0,4,_ZNSt3__114__unwrap_rangeB8ne180100IPKiS2_EENS_4pairIT0_S4_EET_S6_
FNL:1,90,91
FNA:1,22,_ZNSt3__114__rewrap_rangeB8ne180100INS_16reverse_iteratorIPP8HashNodeINS_12basic_stringIcNS_11char_traitsIcEENS_9allocatorIcEEEEiEEESC_EET_SD_T0_
FNA:1,2,_ZNSt3__114__rewrap_rangeB8ne180100INS_16reverse_iteratorIPP8HashNodeIiNS_12basic_stringIcNS_11char_traitsIcEENS_9allocatorIcEEEEEEESC_EET_SD_T0_
FNA:1,4,_ZNSt3__114__rewrap_rangeB8ne180100INS_16reverse_iteratorIPP8HashNodeIiiEEES6_EET_S7_T0_
FNA:1,14,_ZNSt3__114__rewrap_rangeB8ne180100INS_16reverse_iteratorIPiEES3_EET_S4_T0_
FNA:1,24,_ZNSt3__114__rewrap_rangeB8ne180100IPKcS2_EET_S3_T0_
FNA:1,2,_ZNSt3__114__rewrap_rangeB8ne180100IPKiS2_EET_S3_T0_
FNF:2
FNH:2
DA:85,70
DA:86,70
DA:90,68
DA:91,68
LF:4
LH:4
end_of_record
TN:
SF:/Applications/Xcode.app/Contents/Developer/Platforms/MacOSX.platform/Developer/SDKs/MacOSX.sdk/usr/include/c++/v1/__atomic/atomic_base.h
FNL:0,161,162
FNA:0,0,_ZNSt3__113__atomic_baseIiLb1EE9fetch_subB8ne180100EiNS_12memory_orderE
FNF:1
FNH:0
DA:161,0
DA:162,0
LF:2
LH:0
end_of_record
TN:
SF:/Applications/Xcode.app/Contents/Developer/Platforms/MacOSX.platform/Developer/SDKs/MacOSX.sdk/usr/include/c++/v1/__atomic/cxx_atomic_impl.h
FNL:0,474,476
FNA:0,0,_ZNSt3__122__cxx_atomic_fetch_subB8ne180100IiEET_PNS_22__cxx_atomic_base_implIS1_EES1_NS_12memory_orderE
FNF:1
FNH:0
DA:474,0
DA:475,0
DA:476,0
LF:3
LH:0
end_of_record
TN:
SF:/Applications/Xcode.app/Contents/Developer/Platforms/MacOSX.platform/Developer/SDKs/MacOSX.sdk/usr/include/c++/v1/__functional/hash.h
FNL:0,136,137
FNA:0,0,_ZNSt3__121__murmur2_or_cityhashImLm64EE8__rotateB8ne180100Emi
FNL:1,140,141
FNA:1,4,_ZNSt3__121__murmur2_or_cityhashImLm64EE22__rotate_by_at_least_1B8ne180100Emi
FNL:2,144,144
FNA:2,222,_ZNSt3__121__murmur2_or_cityhashImLm64EE11__shift_mixB8ne180100Em
FNL:3,146,153
FNA:3,4944,_ZNSt3__121__murmur2_or_cityhashImLm64EE13__hash_len_16B8ne180100Emm
FNL:4,157,181
FNA:4,5166,_ZNSt3__121__murmur2_or_cityhashImLm64EE18__hash_len_0_to_16B8ne180100EPKcm
FNL:5,184,190
FNA:5,0,_ZNSt3__121__murmur2_or_cityhashImLm64EE19__hash_len_17_to_32B8ne180100EPKcm
FNL:6,196,203
FNA:6,0,_ZNSt3__121__murmur2_or_cityhashImLm64EE29__weak_hash_len_32_with_seedsB8ne180100Emmmmmm
FNL:7,208,215
FNA:7,0,_ZNSt3__121__murmur2_or_cityhashImLm64EE29__weak_hash_len_32_with_seedsB8ne180100EPKcmm
FNL:8,220,240
FNA:8,0,_ZNSt3__121__murmur2_or_cityhashImLm64EE19__hash_len_33_to_64B8ne180100EPKcm
FNL:9,38,41
FNA:9,9880,_ZNSt3__110__loadwordB8ne180100IjEET_PKv
FNA:9,8,_ZNSt3__110__loadwordB8ne180100ImEET_PKv
FNL:10,399,399
FNA:10,450,_ZNKSt3__14hashIiEclB8ne180100Ei
FNL:11,89,127
FNA:11,5166,_ZNKSt3__121__murmur2_or_cityhashImLm64EEclB8ne180100EPKvm
FNF:12
FNH:7
DA:38,9888
DA:40,9888
DA:41,9888
DA:89,5166
DA:90,5166
DA:91,5166
DA:92,5166
DA:93,5166
DA:95,0
DA:97,0
DA:98,0
DA:103,0
DA:104,0
DA:105,0
DA:106,0
DA:107,0
DA:108,0
DA:109,0
DA:112,0
DA:113,0
DA:114,0
DA:115,0
DA:116,0
DA:117,0
DA:118,0
DA:119,0
DA:120,0
DA:121,0
DA:122,0
DA:123,0
DA:124,0
DA:125,0
DA:126,0
DA:127,5166
DA:136,0
DA:137,0
DA:140,4
DA:141,4
DA:144,222
DA:146,4944
DA:147,4944
DA:148,4944
DA:149,4944
DA:150,4944
DA:151,4944
DA:152,4944
DA:153,4944
DA:157,5166
DA:158,5166
DA:159,4
DA:160,4
DA:161,4
DA:163,5162
DA:164,4940
DA:165,4940
DA:169,4940
DA:172,222
DA:173,222
DA:174,222
DA:175,222
DA:176,222
DA:177,222
DA:178,222
DA:180,0
DA:181,5166
DA:184,0
DA:185,0
DA:186,0
DA:187,0
DA:188,0
DA:189,0
DA:190,0
DA:196,0
DA:197,0
DA:198,0
DA:199,0
DA:200,0
DA:201,0
DA:202,0
DA:203,0
DA:208,0
DA:209,0
DA:210,0
DA:211,0
DA:212,0
DA:213,0
DA:214,0
DA:215,0
DA:220,0
DA:221,0
DA:222,0
DA:223,0
DA:224,0
DA:225,0
DA:226,0
DA:227,0
DA:228,0
DA:229,0
DA:230,0
DA:231,0
DA:232,0
DA:233,0
DA:234,0
DA:235,0
DA:236,0
DA:237,0
DA:238,0
DA:239,0
DA:240,0
DA:399,450
LF:110
LH:38
end_of_record
TN:
SF:/Applications/Xcode.app/Contents/Developer/Platforms/MacOSX.platform/Developer/SDKs/MacOSX.sdk/usr/include/c++/v1/__iterator/ostreambuf_iterator.h
FNL:0,53,53
FNA:0,1876,_ZNSt3__119ostreambuf_iteratorIcNS_11char_traitsIcEEEC1B8ne180100ERNS_13basic_ostreamIcS2_EE
FNA:0,1876,_ZNSt3__119ostreambuf_iteratorIcNS_11char_traitsIcEEEC2B8ne180100ERNS_13basic_ostreamIcS2_EE
FNL:1,63,63
FNA:1,1876,_ZNKSt3__119ostreambuf_iteratorIcNS_11char_traitsIcEEE6failedB8ne180100Ev
FNF:2
FNH:2
DA:53,3752
DA:63,1876
LF:2
LH:2
end_of_record
TN:
SF:/Applications/Xcode.app/Contents/Developer/Platforms/MacOSX.platform/Developer/SDKs/MacOSX.sdk/usr/include/c++/v1/__iterator/reverse_iterator.h
FNL:0,129,129
FNA:0,66,_ZNKSt3__116reverse_iteratorIPP8HashNodeINS_12basic_stringIcNS_11char_traitsIcEENS_9allocatorIcEEEEiEE4baseB8ne180100Ev
FNA:0,6,_ZNKSt3__116reverse_iteratorIPP8HashNodeIiNS_12basic_stringIcNS_11char_traitsIcEENS_9allocatorIcEEEEEE4baseB8ne180100Ev
FNA:0,12,_ZNKSt3__116reverse_iteratorIPP8HashNodeIiiEE4baseB8ne180100Ev
FNA:0,294,_ZNKSt3__116reverse_iteratorIPiE4baseB8ne180100Ev
FNL:1,130,132
FNA:1,0,_ZNKSt3__116reverse_iteratorIPP8HashNodeINS_12basic_stringIcNS_11char_traitsIcEENS_9allocatorIcEEEEiEEdeB8ne180100Ev
FNA:1,0,_ZNKSt3__116reverse_iteratorIPP8HashNodeIiNS_12basic_stringIcNS_11char_traitsIcEENS_9allocatorIcEEEEEEdeB8ne180100Ev
FNA:1,0,_ZNKSt3__116reverse_iteratorIPP8HashNodeIiiEEdeB8ne180100Ev
FNA:1,252,_ZNKSt3__116reverse_iteratorIPiEdeB8ne180100Ev
FNL:2,149,151
FNA:2,0,_ZNSt3__116reverse_iteratorIPP8HashNodeINS_12basic_stringIcNS_11char_traitsIcEENS_9allocatorIcEEEEiEEppB8ne180100Ev
FNA:2,0,_ZNSt3__116reverse_iteratorIPP8HashNodeIiNS_12basic_stringIcNS_11char_traitsIcEENS_9allocatorIcEEEEEEppB8ne180100Ev
FNA:2,0,_ZNSt3__116reverse_iteratorIPP8HashNodeIiiEEppB8ne180100Ev
FNA:2,252,_ZNSt3__116reverse_iteratorIPiEppB8ne180100Ev
FNL:3,231,238
FNA:3,22,_ZNSt3__1neB8ne180100IPP8HashNodeINS_12basic_stringIcNS_11char_traitsIcEENS_9allocatorIcEEEEiESA_EEbRKNS_16reverse_iteratorIT_EERKNSB_IT0_EE
FNA:3,2,_ZNSt3__1neB8ne180100IPP8HashNodeIiNS_12basic_stringIcNS_11char_traitsIcEENS_9allocatorIcEEEEESA_EEbRKNS_16reverse_iteratorIT_EERKNSB_IT0_EE
FNA:3,4,_ZNSt3__1neB8ne180100IPP8HashNodeIiiES4_EEbRKNS_16reverse_iteratorIT_EERKNS5_IT0_EE
FNA:3,140,_ZNSt3__1neB8ne180100IPiS1_EEbRKNS_16reverse_iteratorIT_EERKNS2_IT0_EE
FNL:4,97,97
FNA:4,66,_ZNSt3__116reverse_iteratorIPP8HashNodeINS_12basic_stringIcNS_11char_traitsIcEENS_9allocatorIcEEEEiEEC1B8ne180100ESA_
FNA:4,66,_ZNSt3__116reverse_iteratorIPP8HashNodeINS_12basic_stringIcNS_11char_traitsIcEENS_9allocatorIcEEEEiEEC2B8ne180100ESA_
FNA:4,6,_ZNSt3__116reverse_iteratorIPP8HashNodeIiNS_12basic_stringIcNS_11char_traitsIcEENS_9allocatorIcEEEEEEC1B8ne180100ESA_
FNA:4,6,_ZNSt3__116reverse_iteratorIPP8HashNodeIiNS_12basic_stringIcNS_11char_traitsIcEENS_9allocatorIcEEEEEEC2B8ne180100ESA_
FNA:4,12,_ZNSt3__116reverse_iteratorIPP8HashNodeIiiEEC1B8ne180100ES4_
FNA:4,12,_ZNSt3__116reverse_iteratorIPP8HashNodeIiiEEC2B8ne180100ES4_
FNA:4,42,_ZNSt3__116reverse_iteratorIPiEC1B8ne180100ES1_
FNA:4,42,_ZNSt3__116reverse_iteratorIPiEC2B8ne180100ES1_
FNF:5
FNH:5
DA:97,252
DA:129,378
DA:130,252
DA:131,252
DA:132,252
DA:149,252
DA:150,252
DA:151,252
DA:231,168
DA:238,168
LF:10
LH:10
end_of_record
TN:
SF:/Applications/Xcode.app/Contents/Developer/Platforms/MacOSX.platform/Developer/SDKs/MacOSX.sdk/usr/include/c++/v1/__iterator/wrap_iter.h
FNL:0,108,109
FNA:0,150,_ZNSt3__1eqB8ne180100IPiEEbRKNS_11__wrap_iterIT_EES6_
FNL:1,132,133
FNA:1,150,_ZNSt3__1neB8ne180100IPiEEbRKNS_11__wrap_iterIT_EES6_
FNL:2,48,48
FNA:2,144,_ZNKSt3__111__wrap_iterIPiEdeB8ne180100Ev
FNL:3,52,54
FNA:3,144,_ZNSt3__111__wrap_iterIPiEppB8ne180100Ev
FNL:4,91,91
FNA:4,300,_ZNKSt3__111__wrap_iterIPiE4baseB8ne180100Ev
FNL:5,94,94
FNA:5,12,_ZNSt3__111__wrap_iterIPiEC1B8ne180100ES1_
FNA:5,12,_ZNSt3__111__wrap_iterIPiEC2B8ne180100ES1_
FNF:6
FNH:6
DA:48,144
DA:52,144
DA:53,144
DA:54,144
DA:91,300
DA:94,24
DA:108,150
DA:109,150
DA:132,150
DA:133,150
LF:10
LH:10
end_of_record
TN:
SF:/Applications/Xcode.app/Contents/Developer/Platforms/MacOSX.platform/Developer/SDKs/MacOSX.sdk/usr/include/c++/v1/__locale
FNL:0,189
FNA:0,552,_ZNSt3__19use_facetB8ne180100INS_5ctypeIcEEEERKT_RKNS_6localeE
FNL:1,587
FNA:1,552,_ZNKSt3__15ctypeIcE5widenB8ne180100Ec
FNF:2
FNH:2
DA:189,552
DA:190,552
DA:587,552
LF:3
LH:3
end_of_record
TN:
SF:/Applications/Xcode.app/Contents/Developer/Platforms/MacOSX.platform/Developer/SDKs/MacOSX.sdk/usr/include/c++/v1/__memory/allocate_at_least.h
FNL:0,54,55
FNA:0,22,_ZNSt3__119__allocate_at_leastB8ne180100INS_9allocatorIP8HashNodeINS_12basic_stringIcNS_11char_traitsIcEENS1_IcEEEEiEEEEENS_19__allocation_resultINS_16allocator_traitsIT_E7pointerEEERSD_m
FNA:0,2,_ZNSt3__119__allocate_at_leastB8ne180100INS_9allocatorIP8HashNodeIiNS_12basic_stringIcNS_11char_traitsIcEENS1_IcEEEEEEEEENS_19__allocation_resultINS_16allocator_traitsIT_E7pointerEEERSD_m
FNA:0,4,_ZNSt3__119__allocate_at_leastB8ne180100INS_9allocatorIP8HashNodeIiiEEEEENS_19__allocation_resultINS_16allocator_traitsIT_E7pointerEEERS8_m
FNA:0,16,_ZNSt3__119__allocate_at_leastB8ne180100INS_9allocatorIiEEEENS_19__allocation_resultINS_16allocator_traitsIT_E7pointerEEERS5_m
FNF:1
FNH:1
DA:54,44
DA:55,44
LF:2
LH:2
end_of_record
TN:
SF:/Applications/Xcode.app/Contents/Developer/Platforms/MacOSX.platform/Developer/SDKs/MacOSX.sdk/usr/include/c++/v1/__memory/allocator.h
FNL:0,114,114
FNA:0,22,_ZNSt3__19allocatorIP8HashNodeINS_12basic_stringIcNS_11char_traitsIcEENS0_IcEEEEiEEC2B8ne180100Ev
FNA:0,2,_ZNSt3__19allocatorIP8HashNodeIiNS_12basic_stringIcNS_11char_traitsIcEENS0_IcEEEEEEC2B8ne180100Ev
FNA:0,4,_ZNSt3__19allocatorIP8HashNodeIiiEEC2B8ne180100Ev
FNA:0,1690,_ZNSt3__19allocatorIcEC2B8ne180100Ev
FNA:0,4,_ZNSt3__19allocatorIiEC2B8ne180100Ev
FNL:1,119,125
FNA:1,22,_ZNSt3__19allocatorIP8HashNodeINS_12basic_stringIcNS_11char_traitsIcEENS0_IcEEEEiEE8allocateB8ne180100Em
FNA:1,2,_ZNSt3__19allocatorIP8HashNodeIiNS_12basic_stringIcNS_11char_traitsIcEENS0_IcEEEEEE8allocateB8ne180100Em
FNA:1,4,_ZNSt3__19allocatorIP8HashNodeIiiEE8allocateB8ne180100Em
FNA:1,0,_ZNSt3__19allocatorIcE8allocateB8ne180100Em
FNA:1,16,_ZNSt3__19allocatorIiE8allocateB8ne180100Em
FNL:2,135,141
FNA:2,22,_ZNSt3__19allocatorIP8HashNodeINS_12basic_stringIcNS_11char_traitsIcEENS0_IcEEEEiEE10deallocateB8ne180100EPS8_m
FNA:2,2,_ZNSt3__19allocatorIP8HashNodeIiNS_12basic_stringIcNS_11char_traitsIcEENS0_IcEEEEEE10deallocateB8ne180100EPS8_m
FNA:2,4,_ZNSt3__19allocatorIP8HashNodeIiiEE10deallocateB8ne180100EPS3_m
FNA:2,0,_ZNSt3__19allocatorIcE10deallocateB8ne180100EPcm
FNA:2,16,_ZNSt3__19allocatorIiE10deallocateB8ne180100EPim
FNL:3,167,168
FNA:3,44,_ZNKSt3__19allocatorIP8HashNodeINS_12basic_stringIcNS_11char_traitsIcEENS0_IcEEEEiEE8max_sizeB8ne180100Ev
FNA:3,4,_ZNKSt3__19allocatorIP8HashNodeIiNS_12basic_stringIcNS_11char_traitsIcEENS0_IcEEEEEE8max_sizeB8ne180100Ev
FNA:3,8,_ZNKSt3__19allocatorIP8HashNodeIiiEE8max_sizeB8ne180100Ev
FNA:3,12,_ZNKSt3__19allocatorIcE8max_sizeB8ne180100Ev
FNA:3,32,_ZNKSt3__19allocatorIiE8max_sizeB8ne180100Ev
FNL:4,172,174
FNA:4,480,_ZNSt3__19allocatorIP8HashNodeINS_12basic_stringIcNS_11char_traitsIcEENS0_IcEEEEiEE9constructB8ne180100IS8_JRKS8_EEEvPT_DpOT0_
FNA:4,32,_ZNSt3__19allocatorIP8HashNodeIiNS_12basic_stringIcNS_11char_traitsIcEENS0_IcEEEEEE9constructB8ne180100IS8_JRKS8_EEEvPT_DpOT0_
FNA:4,24,_ZNSt3__19allocatorIP8HashNodeIiiEE9constructB8ne180100IS3_JRKS3_EEEvPT_DpOT0_
FNA:4,100,_ZNSt3__19allocatorIiE9constructB8ne180100IiJRKiEEEvPT_DpOT0_
FNL:5,176,176
FNA:5,480,_ZNSt3__19allocatorIP8HashNodeINS_12basic_stringIcNS_11char_traitsIcEENS0_IcEEEEiEE7destroyB8ne180100EPS8_
FNA:5,32,_ZNSt3__19allocatorIP8HashNodeIiNS_12basic_stringIcNS_11char_traitsIcEENS0_IcEEEEEE7destroyB8ne180100EPS8_
FNA:5,24,_ZNSt3__19allocatorIP8HashNodeIiiEE7destroyB8ne180100EPS3_
FNA:5,248,_ZNSt3__19allocatorIiE7destroyB8ne180100EPi
FNL:6,93,93
FNA:6,22,_ZNSt3__116__non_trivial_ifILb1ENS_9allocatorIP8HashNodeINS_12basic_stringIcNS_11char_traitsIcEENS1_IcEEEEiEEEEC2B8ne180100Ev
FNA:6,2,_ZNSt3__116__non_trivial_ifILb1ENS_9allocatorIP8HashNodeIiNS_12basic_stringIcNS_11char_traitsIcEENS1_IcEEEEEEEEC2B8ne180100Ev
FNA:6,4,_ZNSt3__116__non_trivial_ifILb1ENS_9allocatorIP8HashNodeIiiEEEEC2B8ne180100Ev
FNA:6,1690,_ZNSt3__116__non_trivial_ifILb1ENS_9allocatorIcEEEC2B8ne180100Ev
FNA:6,4,_ZNSt3__116__non_trivial_ifILb1ENS_9allocatorIiEEEC2B8ne180100Ev
FNF:7
FNH:7
DA:93,1722
DA:114,1722
DA:119,44
DA:120,44
DA:121,0
DA:125,44
DA:135,44
DA:139,44
DA:141,44
DA:167,100
DA:168,100
DA:172,636
DA:173,636
DA:174,636
DA:176,784
LF:15
LH:14
end_of_record
TN:
SF:/Applications/Xcode.app/Contents/Developer/Platforms/MacOSX.platform/Developer/SDKs/MacOSX.sdk/usr/include/c++/v1/__memory/allocator_traits.h
FNL:0,268,269
FNA:0,0,_ZNSt3__116allocator_traitsINS_9allocatorIcEEE8allocateB8ne180100ERS2_m
FNL:1,288,290
FNA:1,22,_ZNSt3__116allocator_traitsINS_9allocatorIP8HashNodeINS_12basic_stringIcNS_11char_traitsIcEENS1_IcEEEEiEEEE10deallocateB8ne180100ERSA_PS9_m
FNA:1,2,_ZNSt3__116allocator_traitsINS_9allocatorIP8HashNodeIiNS_12basic_stringIcNS_11char_traitsIcEENS1_IcEEEEEEEE10deallocateB8ne180100ERSA_PS9_m
FNA:1,4,_ZNSt3__116allocator_traitsINS_9allocatorIP8HashNodeIiiEEEE10deallocateB8ne180100ERS5_PS4_m
FNA:1,0,_ZNSt3__116allocator_traitsINS_9allocatorIcEEE10deallocateB8ne180100ERS2_Pcm
FNA:1,16,_ZNSt3__116allocator_traitsINS_9allocatorIiEEE10deallocateB8ne180100ERS2_Pim
FNL:2,294,298
FNA:2,480,_ZNSt3__116allocator_traitsINS_9allocatorIP8HashNodeINS_12basic_stringIcNS_11char_traitsIcEENS1_IcEEEEiEEEE9constructB8ne180100IS9_JRKS9_EvEEvRSA_PT_DpOT0_
FNA:2,32,_ZNSt3__116allocator_traitsINS_9allocatorIP8HashNodeIiNS_12basic_stringIcNS_11char_traitsIcEENS1_IcEEEEEEEE9constructB8ne180100IS9_JRKS9_EvEEvRSA_PT_DpOT0_
FNA:2,24,_ZNSt3__116allocator_traitsINS_9allocatorIP8HashNodeIiiEEEE9constructB8ne180100IS4_JRKS4_EvEEvRS5_PT_DpOT0_
FNA:2,100,_ZNSt3__116allocator_traitsINS_9allocatorIiEEE9constructB8ne180100IiJRKiEvEEvRS2_PT_DpOT0_
FNL:3,309,313
FNA:3,480,_ZNSt3__116allocator_traitsINS_9allocatorIP8HashNodeINS_12basic_stringIcNS_11char_traitsIcEENS1_IcEEEEiEEEE7destroyB8ne180100IS9_vEEvRSA_PT_
FNA:3,32,_ZNSt3__116allocator_traitsINS_9allocatorIP8HashNodeIiNS_12basic_stringIcNS_11char_traitsIcEENS1_IcEEEEEEEE7destroyB8ne180100IS9_vEEvRSA_PT_
FNA:3,24,_ZNSt3__116allocator_traitsINS_9allocatorIP8HashNodeIiiEEEE7destroyB8ne180100IS4_vEEvRS5_PT_
FNA:3,248,_ZNSt3__116allocator_traitsINS_9allocatorIiEEE7destroyB8ne180100IivEEvRS2_PT_
FNL:4,320,322
FNA:4,44,_ZNSt3__116allocator_traitsINS_9allocatorIP8HashNodeINS_12basic_stringIcNS_11char_traitsIcEENS1_IcEEEEiEEEE8max_sizeB8ne180100ISA_vEEmRKSA_
FNA:4,4,_ZNSt3__116allocator_traitsINS_9allocatorIP8HashNodeIiNS_12basic_stringIcNS_11char_traitsIcEENS1_IcEEEEEEEE8max_sizeB8ne180100ISA_vEEmRKSA_
FNA:4,8,_ZNSt3__116allocator_traitsINS_9allocatorIP8HashNodeIiiEEEE8max_sizeB8ne180100IS5_vEEmRKS5_
FNA:4,12,_ZNSt3__116allocator_traitsINS_9allocatorIcEEE8max_sizeB8ne180100IS2_vEEmRKS2_
FNA:4,32,_ZNSt3__116allocator_traitsINS_9allocatorIiEEE8max_sizeB8ne180100IS2_vEEmRKS2_
FNL:5,339,340
FNA:5,12,_ZNSt3__116allocator_traitsINS_9allocatorIcEEE37select_on_container_copy_constructionB8ne180100IS2_vvEES2_RKS2_
FNF:6
FNH:5
DA:268,0
DA:269,0
DA:288,44
DA:289,44
DA:290,44
DA:294,636
DA:296,636
DA:298,636
DA:309,784
DA:311,784
DA:313,784
DA:320,100
DA:322,100
DA:339,12
DA:340,12
LF:15
LH:13
end_of_record
TN:
SF:/Applications/Xcode.app/Contents/Developer/Platforms/MacOSX.platform/Developer/SDKs/MacOSX.sdk/usr/include/c++/v1/__memory/compressed_pair.h
FNL:0,118,119
FNA:0,1048,_ZNSt3__117__compressed_pairINS_12basic_stringIcNS_11char_traitsIcEENS_9allocatorIcEEE5__repES5_EC1B8ne180100INS_16__value_init_tagENS_18__default_init_tagEEEOT_OT0_
FNA:0,12,_ZNSt3__117__compressed_pairINS_12basic_stringIcNS_11char_traitsIcEENS_9allocatorIcEEE5__repES5_EC1B8ne180100INS_18__default_init_tagERKS5_EEOT_OT0_
FNA:0,642,_ZNSt3__117__compressed_pairINS_12basic_stringIcNS_11char_traitsIcEENS_9allocatorIcEEE5__repES5_EC1B8ne180100INS_18__default_init_tagESA_EEOT_OT0_
FNA:0,1048,_ZNSt3__117__compressed_pairINS_12basic_stringIcNS_11char_traitsIcEENS_9allocatorIcEEE5__repES5_EC2B8ne180100INS_16__value_init_tagENS_18__default_init_tagEEEOT_OT0_
FNA:0,12,_ZNSt3__117__compressed_pairINS_12basic_stringIcNS_11char_traitsIcEENS_9allocatorIcEEE5__repES5_EC2B8ne180100INS_18__default_init_tagERKS5_EEOT_OT0_
FNA:0,642,_ZNSt3__117__compressed_pairINS_12basic_stringIcNS_11char_traitsIcEENS_9allocatorIcEEE5__repES5_EC2B8ne180100INS_18__default_init_tagESA_EEOT_OT0_
FNA:0,104,_ZNSt3__117__compressed_pairIPNS_12basic_stringIcNS_11char_traitsIcEENS_9allocatorIcEEEENS_14default_deleteIS6_EEEC1B8ne180100INS_16__value_init_tagESC_EEOT_OT0_
FNA:0,0,_ZNSt3__117__compressed_pairIPNS_12basic_stringIcNS_11char_traitsIcEENS_9allocatorIcEEEENS_14default_deleteIS6_EEEC1B8ne180100IRS7_NS_16__value_init_tagEEEOT_OT0_
FNA:0,104,_ZNSt3__117__compressed_pairIPNS_12basic_stringIcNS_11char_traitsIcEENS_9allocatorIcEEEENS_14default_deleteIS6_EEEC2B8ne180100INS_16__value_init_tagESC_EEOT_OT0_
FNA:0,0,_ZNSt3__117__compressed_pairIPNS_12basic_stringIcNS_11char_traitsIcEENS_9allocatorIcEEEENS_14default_deleteIS6_EEEC2B8ne180100IRS7_NS_16__value_init_tagEEEOT_OT0_
FNA:0,22,_ZNSt3__117__compressed_pairIPP8HashNodeINS_12basic_stringIcNS_11char_traitsIcEENS_9allocatorIcEEEEiENS5_IS9_EEEC1B8ne180100IDnNS_18__default_init_tagEEEOT_OT0_
FNA:0,22,_ZNSt3__117__compressed_pairIPP8HashNodeINS_12basic_stringIcNS_11char_traitsIcEENS_9allocatorIcEEEEiENS5_IS9_EEEC2B8ne180100IDnNS_18__default_init_tagEEEOT_OT0_
FNA:0,22,_ZNSt3__117__compressed_pairIPP8HashNodeINS_12basic_stringIcNS_11char_traitsIcEENS_9allocatorIcEEEEiERNS5_IS9_EEEC1B8ne180100IDnSC_EEOT_OT0_
FNA:0,22,_ZNSt3__117__compressed_pairIPP8HashNodeINS_12basic_stringIcNS_11char_traitsIcEENS_9allocatorIcEEEEiERNS5_IS9_EEEC2B8ne180100IDnSC_EEOT_OT0_
FNA:0,2,_ZNSt3__117__compressed_pairIPP8HashNodeIiNS_12basic_stringIcNS_11char_traitsIcEENS_9allocatorIcEEEEENS5_IS9_EEEC1B8ne180100IDnNS_18__default_init_tagEEEOT_OT0_
FNA:0,2,_ZNSt3__117__compressed_pairIPP8HashNodeIiNS_12basic_stringIcNS_11char_traitsIcEENS_9allocatorIcEEEEENS5_IS9_EEEC2B8ne180100IDnNS_18__default_init_tagEEEOT_OT0_
FNA:0,2,_ZNSt3__117__compressed_pairIPP8HashNodeIiNS_12basic_stringIcNS_11char_traitsIcEENS_9allocatorIcEEEEERNS5_IS9_EEEC1B8ne180100IDnSC_EEOT_OT0_
FNA:0,2,_ZNSt3__117__compressed_pairIPP8HashNodeIiNS_12basic_stringIcNS_11char_traitsIcEENS_9allocatorIcEEEEERNS5_IS9_EEEC2B8ne180100IDnSC_EEOT_OT0_
FNA:0,4,_ZNSt3__117__compressed_pairIPP8HashNodeIiiENS_9allocatorIS3_EEEC1B8ne180100IDnNS_18__default_init_tagEEEOT_OT0_
FNA:0,4,_ZNSt3__117__compressed_pairIPP8HashNodeIiiENS_9allocatorIS3_EEEC2B8ne180100IDnNS_18__default_init_tagEEEOT_OT0_
FNA:0,4,_ZNSt3__117__compressed_pairIPP8HashNodeIiiERNS_9allocatorIS3_EEEC1B8ne180100IDnS7_EEOT_OT0_
FNA:0,4,_ZNSt3__117__compressed_pairIPP8HashNodeIiiERNS_9allocatorIS3_EEEC2B8ne180100IDnS7_EEOT_OT0_
FNA:0,4,_ZNSt3__117__compressed_pairIPiNS_9allocatorIiEEEC1B8ne180100IDnNS_18__default_init_tagEEEOT_OT0_
FNA:0,4,_ZNSt3__117__compressed_pairIPiNS_9allocatorIiEEEC2B8ne180100IDnNS_18__default_init_tagEEEOT_OT0_
FNA:0,14,_ZNSt3__117__compressed_pairIPiRNS_9allocatorIiEEEC1B8ne180100IDnS4_EEOT_OT0_
FNA:0,14,_ZNSt3__117__compressed_pairIPiRNS_9allocatorIiEEEC2B8ne180100IDnS4_EEOT_OT0_
FNL:1,129,130
FNA:1,7748,_ZNSt3__117__compressed_pairINS_12basic_stringIcNS_11char_traitsIcEENS_9allocatorIcEEE5__repES5_E5firstB8ne180100Ev
FNA:1,584,_ZNSt3__117__compressed_pairIPNS_12basic_stringIcNS_11char_traitsIcEENS_9allocatorIcEEEENS_14default_deleteIS6_EEE5firstB8ne180100Ev
FNA:1,0,_ZNSt3__117__compressed_pairIPNS_18basic_stringstreamIcNS_11char_traitsIcEENS_9allocatorIcEEEENS_14default_deleteIS6_EEE5firstB8ne180100Ev
FNA:1,44,_ZNSt3__117__compressed_pairIPP8HashNodeINS_12basic_stringIcNS_11char_traitsIcEENS_9allocatorIcEEEEiENS5_IS9_EEE5firstB8ne180100Ev
FNA:1,44,_ZNSt3__117__compressed_pairIPP8HashNodeINS_12basic_stringIcNS_11char_traitsIcEENS_9allocatorIcEEEEiERNS5_IS9_EEE5firstB8ne180100Ev
FNA:1,4,_ZNSt3__117__compressed_pairIPP8HashNodeIiNS_12basic_stringIcNS_11char_traitsIcEENS_9allocatorIcEEEEENS5_IS9_EEE5firstB8ne180100Ev
FNA:1,4,_ZNSt3__117__compressed_pairIPP8HashNodeIiNS_12basic_stringIcNS_11char_traitsIcEENS_9allocatorIcEEEEERNS5_IS9_EEE5firstB8ne180100Ev
FNA:1,8,_ZNSt3__117__compressed_pairIPP8HashNodeIiiENS_9allocatorIS3_EEE5firstB8ne180100Ev
FNA:1,8,_ZNSt3__117__compressed_pairIPP8HashNodeIiiERNS_9allocatorIS3_EEE5firstB8ne180100Ev
FNA:1,116,_ZNSt3__117__compressed_pairIPiNS_9allocatorIiEEE5firstB8ne180100Ev
FNA:1,28,_ZNSt3__117__compressed_pairIPiRNS_9allocatorIiEEE5firstB8ne180100Ev
FNL:2,133,134
FNA:2,1097666,_ZNKSt3__117__compressed_pairINS_12basic_stringIcNS_11char_traitsIcEENS_9allocatorIcEEE5__repES5_E5firstB8ne180100Ev
FNA:2,0,_ZNKSt3__117__compressed_pairIPNS_12basic_stringIcNS_11char_traitsIcEENS_9allocatorIcEEEENS_14default_deleteIS6_EEE5firstB8ne180100Ev
FNA:2,0,_ZNKSt3__117__compressed_pairIPNS_18basic_stringstreamIcNS_11char_traitsIcEENS_9allocatorIcEEEENS_14default_deleteIS6_EEE5firstB8ne180100Ev
FNA:2,44,_ZNKSt3__117__compressed_pairIPP8HashNodeINS_12basic_stringIcNS_11char_traitsIcEENS_9allocatorIcEEEEiENS5_IS9_EEE5firstB8ne180100Ev
FNA:2,0,_ZNKSt3__117__compressed_pairIPP8HashNodeINS_12basic_stringIcNS_11char_traitsIcEENS_9allocatorIcEEEEiERNS5_IS9_EEE5firstB8ne180100Ev
FNA:2,4,_ZNKSt3__117__compressed_pairIPP8HashNodeIiNS_12basic_stringIcNS_11char_traitsIcEENS_9allocatorIcEEEEENS5_IS9_EEE5firstB8ne180100Ev
FNA:2,0,_ZNKSt3__117__compressed_pairIPP8HashNodeIiNS_12basic_stringIcNS_11char_traitsIcEENS_9allocatorIcEEEEERNS5_IS9_EEE5firstB8ne180100Ev
FNA:2,8,_ZNKSt3__117__compressed_pairIPP8HashNodeIiiENS_9allocatorIS3_EEE5firstB8ne180100Ev
FNA:2,0,_ZNKSt3__117__compressed_pairIPP8HashNodeIiiERNS_9allocatorIS3_EEE5firstB8ne180100Ev
FNA:2,18,_ZNKSt3__117__compressed_pairIPiNS_9allocatorIiEEE5firstB8ne180100Ev
FNA:2,12,_ZNKSt3__117__compressed_pairIPiRNS_9allocatorIiEEE5firstB8ne180100Ev
FNL:3,137,138
FNA:3,1020,_ZNSt3__117__compressed_pairINS_12basic_stringIcNS_11char_traitsIcEENS_9allocatorIcEEE5__repES5_E6secondB8ne180100Ev
FNA:3,0,_ZNSt3__117__compressed_pairIPNS_12basic_stringIcNS_11char_traitsIcEENS_9allocatorIcEEEENS_14default_deleteIS6_EEE6secondB8ne180100Ev
FNA:3,0,_ZNSt3__117__compressed_pairIPNS_18basic_stringstreamIcNS_11char_traitsIcEENS_9allocatorIcEEEENS_14default_deleteIS6_EEE6secondB8ne180100Ev
FNA:3,546,_ZNSt3__117__compressed_pairIPP8HashNodeINS_12basic_stringIcNS_11char_traitsIcEENS_9allocatorIcEEEEiENS5_IS9_EEE6secondB8ne180100Ev
FNA:3,502,_ZNSt3__117__compressed_pairIPP8HashNodeINS_12basic_stringIcNS_11char_traitsIcEENS_9allocatorIcEEEEiERNS5_IS9_EEE6secondB8ne180100Ev
FNA:3,38,_ZNSt3__117__compressed_pairIPP8HashNodeIiNS_12basic_stringIcNS_11char_traitsIcEENS_9allocatorIcEEEEENS5_IS9_EEE6secondB8ne180100Ev
FNA:3,34,_ZNSt3__117__compressed_pairIPP8HashNodeIiNS_12basic_stringIcNS_11char_traitsIcEENS_9allocatorIcEEEEERNS5_IS9_EEE6secondB8ne180100Ev
FNA:3,36,_ZNSt3__117__compressed_pairIPP8HashNodeIiiENS_9allocatorIS3_EEE6secondB8ne180100Ev
FNA:3,28,_ZNSt3__117__compressed_pairIPP8HashNodeIiiERNS_9allocatorIS3_EEE6secondB8ne180100Ev
FNA:3,244,_ZNSt3__117__compressed_pairIPiNS_9allocatorIiEEE6secondB8ne180100Ev
FNA:3,152,_ZNSt3__117__compressed_pairIPiRNS_9allocatorIiEEE6secondB8ne180100Ev
FNL:4,141,142
FNA:4,24,_ZNKSt3__117__compressed_pairINS_12basic_stringIcNS_11char_traitsIcEENS_9allocatorIcEEE5__repES5_E6secondB8ne180100Ev
FNA:4,22,_ZNKSt3__117__compressed_pairIPP8HashNodeINS_12basic_stringIcNS_11char_traitsIcEENS_9allocatorIcEEEEiENS5_IS9_EEE6secondB8ne180100Ev
FNA:4,2,_ZNKSt3__117__compressed_pairIPP8HashNodeIiNS_12basic_stringIcNS_11char_traitsIcEENS_9allocatorIcEEEEENS5_IS9_EEE6secondB8ne180100Ev
FNA:4,4,_ZNKSt3__117__compressed_pairIPP8HashNodeIiiENS_9allocatorIS3_EEE6secondB8ne180100Ev
FNA:4,16,_ZNKSt3__117__compressed_pairIPiNS_9allocatorIiEEE6secondB8ne180100Ev
FNL:5,49,49
FNA:5,654,_ZNSt3__122__compressed_pair_elemINS_12basic_stringIcNS_11char_traitsIcEENS_9allocatorIcEEE5__repELi0ELb0EEC2B8ne180100ENS_18__default_init_tagE
FNL:6,50,50
FNA:6,1048,_ZNSt3__122__compressed_pair_elemINS_12basic_stringIcNS_11char_traitsIcEENS_9allocatorIcEEE5__repELi0ELb0EEC2B8ne180100ENS_16__value_init_tagE
FNA:6,104,_ZNSt3__122__compressed_pair_elemIPNS_12basic_stringIcNS_11char_traitsIcEENS_9allocatorIcEEEELi0ELb0EEC2B8ne180100ENS_16__value_init_tagE
FNL:7,53,54
FNA:7,0,_ZNSt3__122__compressed_pair_elemIPNS_12basic_stringIcNS_11char_traitsIcEENS_9allocatorIcEEEELi0ELb0EEC2B8ne180100IRS7_vEEOT_
FNA:7,44,_ZNSt3__122__compressed_pair_elemIPP8HashNodeINS_12basic_stringIcNS_11char_traitsIcEENS_9allocatorIcEEEEiELi0ELb0EEC2B8ne180100IDnvEEOT_
FNA:7,4,_ZNSt3__122__compressed_pair_elemIPP8HashNodeIiNS_12basic_stringIcNS_11char_traitsIcEENS_9allocatorIcEEEEELi0ELb0EEC2B8ne180100IDnvEEOT_
FNA:7,8,_ZNSt3__122__compressed_pair_elemIPP8HashNodeIiiELi0ELb0EEC2B8ne180100IDnvEEOT_
FNA:7,18,_ZNSt3__122__compressed_pair_elemIPiLi0ELb0EEC2B8ne180100IDnvEEOT_
FNA:7,22,_ZNSt3__122__compressed_pair_elemIRNS_9allocatorIP8HashNodeINS_12basic_stringIcNS_11char_traitsIcEENS1_IcEEEEiEEELi1ELb0EEC2B8ne180100ISB_vEEOT_
FNA:7,2,_ZNSt3__122__compressed_pair_elemIRNS_9allocatorIP8HashNodeIiNS_12basic_stringIcNS_11char_traitsIcEENS1_IcEEEEEEELi1ELb0EEC2B8ne180100ISB_vEEOT_
FNA:7,4,_ZNSt3__122__compressed_pair_elemIRNS_9allocatorIP8HashNodeIiiEEELi1ELb0EEC2B8ne180100IS6_vEEOT_
FNA:7,14,_ZNSt3__122__compressed_pair_elemIRNS_9allocatorIiEELi1ELb0EEC2B8ne180100IS3_vEEOT_
FNL:8,63,63
FNA:8,7748,_ZNSt3__122__compressed_pair_elemINS_12basic_stringIcNS_11char_traitsIcEENS_9allocatorIcEEE5__repELi0ELb0EE5__getB8ne180100Ev
FNA:8,584,_ZNSt3__122__compressed_pair_elemIPNS_12basic_stringIcNS_11char_traitsIcEENS_9allocatorIcEEEELi0ELb0EE5__getB8ne180100Ev
FNA:8,0,_ZNSt3__122__compressed_pair_elemIPNS_18basic_stringstreamIcNS_11char_traitsIcEENS_9allocatorIcEEEELi0ELb0EE5__getB8ne180100Ev
FNA:8,88,_ZNSt3__122__compressed_pair_elemIPP8HashNodeINS_12basic_stringIcNS_11char_traitsIcEENS_9allocatorIcEEEEiELi0ELb0EE5__getB8ne180100Ev
FNA:8,8,_ZNSt3__122__compressed_pair_elemIPP8HashNodeIiNS_12basic_stringIcNS_11char_traitsIcEENS_9allocatorIcEEEEELi0ELb0EE5__getB8ne180100Ev
FNA:8,16,_ZNSt3__122__compressed_pair_elemIPP8HashNodeIiiELi0ELb0EE5__getB8ne180100Ev
FNA:8,144,_ZNSt3__122__compressed_pair_elemIPiLi0ELb0EE5__getB8ne180100Ev
FNA:8,502,_ZNSt3__122__compressed_pair_elemIRNS_9allocatorIP8HashNodeINS_12basic_stringIcNS_11char_traitsIcEENS1_IcEEEEiEEELi1ELb0EE5__getB8ne180100Ev
FNA:8,34,_ZNSt3__122__compressed_pair_elemIRNS_9allocatorIP8HashNodeIiNS_12basic_stringIcNS_11char_traitsIcEENS1_IcEEEEEEELi1ELb0EE5__getB8ne180100Ev
FNA:8,28,_ZNSt3__122__compressed_pair_elemIRNS_9allocatorIP8HashNodeIiiEEELi1ELb0EE5__getB8ne180100Ev
FNA:8,152,_ZNSt3__122__compressed_pair_elemIRNS_9allocatorIiEELi1ELb0EE5__getB8ne180100Ev
FNL:9,64,64
FNA:9,1097666,_ZNKSt3__122__compressed_pair_elemINS_12basic_stringIcNS_11char_traitsIcEENS_9allocatorIcEEE5__repELi0ELb0EE5__getB8ne180100Ev
FNA:9,0,_ZNKSt3__122__compressed_pair_elemIPNS_12basic_stringIcNS_11char_traitsIcEENS_9allocatorIcEEEELi0ELb0EE5__getB8ne180100Ev
FNA:9,0,_ZNKSt3__122__compressed_pair_elemIPNS_18basic_stringstreamIcNS_11char_traitsIcEENS_9allocatorIcEEEELi0ELb0EE5__getB8ne180100Ev
FNA:9,44,_ZNKSt3__122__compressed_pair_elemIPP8HashNodeINS_12basic_stringIcNS_11char_traitsIcEENS_9allocatorIcEEEEiELi0ELb0EE5__getB8ne180100Ev
FNA:9,4,_ZNKSt3__122__compressed_pair_elemIPP8HashNodeIiNS_12basic_stringIcNS_11char_traitsIcEENS_9allocatorIcEEEEELi0ELb0EE5__getB8ne180100Ev
FNA:9,8,_ZNKSt3__122__compressed_pair_elemIPP8HashNodeIiiELi0ELb0EE5__getB8ne180100Ev
FNA:9,30,_ZNKSt3__122__compressed_pair_elemIPiLi0ELb0EE5__getB8ne180100Ev
FNL:10,78,78
FNA:10,22,_ZNSt3__122__compressed_pair_elemINS_9allocatorIP8HashNodeINS_12basic_stringIcNS_11char_traitsIcEENS1_IcEEEEiEEELi1ELb1EEC2B8ne180100ENS_18__default_init_tagE
FNA:10,2,_ZNSt3__122__compressed_pair_elemINS_9allocatorIP8HashNodeIiNS_12basic_stringIcNS_11char_traitsIcEENS1_IcEEEEEEELi1ELb1EEC2B8ne180100ENS_18__default_init_tagE
FNA:10,4,_ZNSt3__122__compressed_pair_elemINS_9allocatorIP8HashNodeIiiEEELi1ELb1EEC2B8ne180100ENS_18__default_init_tagE
FNA:10,1690,_ZNSt3__122__compressed_pair_elemINS_9allocatorIcEELi1ELb1EEC2B8ne180100ENS_18__default_init_tagE
FNA:10,4,_ZNSt3__122__compressed_pair_elemINS_9allocatorIiEELi1ELb1EEC2B8ne180100ENS_18__default_init_tagE
FNL:11,79,79
FNA:11,104,_ZNSt3__122__compressed_pair_elemINS_14default_deleteINS_12basic_stringIcNS_11char_traitsIcEENS_9allocatorIcEEEEEELi1ELb1EEC2B8ne180100ENS_16__value_init_tagE
FNL:12,82,83
FNA:12,12,_ZNSt3__122__compressed_pair_elemINS_9allocatorIcEELi1ELb1EEC2B8ne180100IRKS2_vEEOT_
FNL:13,92,92
FNA:13,0,_ZNSt3__122__compressed_pair_elemINS_14default_deleteINS_12basic_stringIcNS_11char_traitsIcEENS_9allocatorIcEEEEEELi1ELb1EE5__getB8ne180100Ev
FNA:13,0,_ZNSt3__122__compressed_pair_elemINS_14default_deleteINS_18basic_stringstreamIcNS_11char_traitsIcEENS_9allocatorIcEEEEEELi1ELb1EE5__getB8ne180100Ev
FNA:13,546,_ZNSt3__122__compressed_pair_elemINS_9allocatorIP8HashNodeINS_12basic_stringIcNS_11char_traitsIcEENS1_IcEEEEiEEELi1ELb1EE5__getB8ne180100Ev
FNA:13,38,_ZNSt3__122__compressed_pair_elemINS_9allocatorIP8HashNodeIiNS_12basic_stringIcNS_11char_traitsIcEENS1_IcEEEEEEELi1ELb1EE5__getB8ne180100Ev
FNA:13,36,_ZNSt3__122__compressed_pair_elemINS_9allocatorIP8HashNodeIiiEEELi1ELb1EE5__getB8ne180100Ev
FNA:13,1020,_ZNSt3__122__compressed_pair_elemINS_9allocatorIcEELi1ELb1EE5__getB8ne180100Ev
FNA:13,244,_ZNSt3__122__compressed_pair_elemINS_9allocatorIiEELi1ELb1EE5__getB8ne180100Ev
FNL:14,93,93
FNA:14,22,_ZNKSt3__122__compressed_pair_elemINS_9allocatorIP8HashNodeINS_12basic_stringIcNS_11char_traitsIcEENS1_IcEEEEiEEELi1ELb1EE5__getB8ne180100Ev
FNA:14,2,_ZNKSt3__122__compressed_pair_elemINS_9allocatorIP8HashNodeIiNS_12basic_stringIcNS_11char_traitsIcEENS1_IcEEEEEEELi1ELb1EE5__getB8ne180100Ev
FNA:14,4,_ZNKSt3__122__compressed_pair_elemINS_9allocatorIP8HashNodeIiiEEELi1ELb1EE5__getB8ne180100Ev
FNA:14,24,_ZNKSt3__122__compressed_pair_elemINS_9allocatorIcEELi1ELb1EE5__getB8ne180100Ev
FNA:14,16,_ZNKSt3__122__compressed_pair_elemINS_9allocatorIiEELi1ELb1EE5__getB8ne180100Ev
FNF:15
FNH:15
DA:49,654
DA:50,1152
DA:53,116
DA:54,116
DA:63,9304
DA:64,1097752
DA:78,1722
DA:79,104
DA:82,12
DA:83,12
DA:92,1884
DA:93,68
DA:118,3760
DA:119,3760
DA:129,8588
DA:130,8588
DA:133,1097752
DA:134,1097752
DA:137,2600
DA:138,2600
DA:141,68
DA:142,68
LF:22
LH:22
end_of_record
TN:
SF:/Applications/Xcode.app/Contents/Developer/Platforms/MacOSX.platform/Developer/SDKs/MacOSX.sdk/usr/include/c++/v1/__memory/pointer_traits.h
FNL:0,161,162
FNA:0,221088,_ZNSt3__114pointer_traitsIPKcE10pointer_toB8ne180100ERS1_
FNA:0,522,_ZNSt3__114pointer_traitsIPcE10pointer_toB8ne180100ERc
FNL:1,180,182
FNA:1,221704,_ZNSt3__112__to_addressB8ne180100IKcEEPT_S3_
FNA:1,10,_ZNSt3__112__to_addressB8ne180100IKiEEPT_S3_
FNA:1,960,_ZNSt3__112__to_addressB8ne180100IP8HashNodeINS_12basic_stringIcNS_11char_traitsIcEENS_9allocatorIcEEEEiEEEPT_SB_
FNA:1,64,_ZNSt3__112__to_addressB8ne180100IP8HashNodeIiNS_12basic_stringIcNS_11char_traitsIcEENS_9allocatorIcEEEEEEEPT_SB_
FNA:1,48,_ZNSt3__112__to_addressB8ne180100IP8HashNodeIiiEEEPT_S5_
FNA:1,60,_ZNSt3__112__to_addressB8ne180100IcEEPT_S2_
FNA:1,356,_ZNSt3__112__to_addressB8ne180100IiEEPT_S2_
FNF:2
FNH:2
DA:161,221610
DA:162,221610
DA:180,223202
DA:182,223202
LF:4
LH:4
end_of_record
TN:
SF:/Applications/Xcode.app/Contents/Developer/Platforms/MacOSX.platform/Developer/SDKs/MacOSX.sdk/usr/include/c++/v1/__memory/uninitialized_algorithms.h
FNL:0,574,584
FNA:0,2,_ZNSt3__135__uninitialized_allocator_copy_implB8ne180100INS_9allocatorIiEEKiiiLPv0EEEPT2_RT_PT0_SA_S6_
FNL:1,590,594
FNA:1,2,_ZNSt3__130__uninitialized_allocator_copyB8ne180100INS_9allocatorIiEEPKiS4_PiEET2_RT_T0_T1_S6_
FNL:2,638,647
FNA:2,22,_ZNSt3__142__uninitialized_allocator_move_if_noexceptB8ne180100INS_9allocatorIP8HashNodeINS_12basic_stringIcNS_11char_traitsIcEENS1_IcEEEEiEEENS_16reverse_iteratorIPS9_EESD_S9_vEET1_RT_T0_SH_SE_
FNA:2,2,_ZNSt3__142__uninitialized_allocator_move_if_noexceptB8ne180100INS_9allocatorIP8HashNodeIiNS_12basic_stringIcNS_11char_traitsIcEENS1_IcEEEEEEENS_16reverse_iteratorIPS9_EESD_S9_vEET1_RT_T0_SH_SE_
FNA:2,4,_ZNSt3__142__uninitialized_allocator_move_if_noexceptB8ne180100INS_9allocatorIP8HashNodeIiiEEENS_16reverse_iteratorIPS4_EES8_S4_vEET1_RT_T0_SC_S9_
FNA:2,14,_ZNSt3__142__uninitialized_allocator_move_if_noexceptB8ne180100INS_9allocatorIiEENS_16reverse_iteratorIPiEES5_ivEET1_RT_T0_S9_S6_
FNF:3
FNH:3
DA:574,2
DA:584,2
DA:590,2
DA:591,2
DA:592,2
DA:593,2
DA:594,2
DA:638,42
DA:647,42
LF:9
LH:9
end_of_record
TN:
SF:/Applications/Xcode.app/Contents/Developer/Platforms/MacOSX.platform/Developer/SDKs/MacOSX.sdk/usr/include/c++/v1/__memory/unique_ptr.h
FNL:0,167,167
FNA:0,104,_ZNSt3__110unique_ptrINS_12basic_stringIcNS_11char_traitsIcEENS_9allocatorIcEEEENS_14default_deleteIS6_EEEC1B8ne180100ILb1EvEEv
FNA:0,104,_ZNSt3__110unique_ptrINS_12basic_stringIcNS_11char_traitsIcEENS_9allocatorIcEEEENS_14default_deleteIS6_EEEC2B8ne180100ILb1EvEEv
FNL:1,174,175
FNA:1,0,_ZNSt3__110unique_ptrINS_12basic_stringIcNS_11char_traitsIcEENS_9allocatorIcEEEENS_14default_deleteIS6_EEEC1B8ne180100ILb1EvEEPS6_
FNA:1,0,_ZNSt3__110unique_ptrINS_12basic_stringIcNS_11char_traitsIcEENS_9allocatorIcEEEENS_14default_deleteIS6_EEEC2B8ne180100ILb1EvEEPS6_
FNL:2,206,209
FNA:2,0,_ZNSt3__110unique_ptrINS_12basic_stringIcNS_11char_traitsIcEENS_9allocatorIcEEEENS_14default_deleteIS6_EEEaSB8ne180100EOS9_
FNL:3,236,236
FNA:3,292,_ZNSt3__110unique_ptrINS_12basic_stringIcNS_11char_traitsIcEENS_9allocatorIcEEEENS_14default_deleteIS6_EEED1B8ne180100Ev
FNA:3,292,_ZNSt3__110unique_ptrINS_12basic_stringIcNS_11char_traitsIcEENS_9allocatorIcEEEENS_14default_deleteIS6_EEED2B8ne180100Ev
FNA:3,0,_ZNSt3__110unique_ptrINS_18basic_stringstreamIcNS_11char_traitsIcEENS_9allocatorIcEEEENS_14default_deleteIS6_EEED1B8ne180100Ev
FNA:3,0,_ZNSt3__110unique_ptrINS_18basic_stringstreamIcNS_11char_traitsIcEENS_9allocatorIcEEEENS_14default_deleteIS6_EEED2B8ne180100Ev
FNL:4,243,244
FNA:4,0,_ZNKSt3__110unique_ptrINS_18basic_stringstreamIcNS_11char_traitsIcEENS_9allocatorIcEEEENS_14default_deleteIS6_EEEdeB8ne180100Ev
FNL:5,246,246
FNA:5,0,_ZNKSt3__110unique_ptrINS_12basic_stringIcNS_11char_traitsIcEENS_9allocatorIcEEEENS_14default_deleteIS6_EEEptB8ne180100Ev
FNL:6,248,248
FNA:6,0,_ZNSt3__110unique_ptrINS_12basic_stringIcNS_11char_traitsIcEENS_9allocatorIcEEEENS_14default_deleteIS6_EEE11get_deleterB8ne180100Ev
FNL:7,252,253
FNA:7,0,_ZNKSt3__110unique_ptrINS_12basic_stringIcNS_11char_traitsIcEENS_9allocatorIcEEEENS_14default_deleteIS6_EEEcvbB8ne180100Ev
FNL:8,256,259
FNA:8,0,_ZNSt3__110unique_ptrINS_12basic_stringIcNS_11char_traitsIcEENS_9allocatorIcEEEENS_14default_deleteIS6_EEE7releaseB8ne180100Ev
FNL:9,262,267
FNA:9,292,_ZNSt3__110unique_ptrINS_12basic_stringIcNS_11char_traitsIcEENS_9allocatorIcEEEENS_14default_deleteIS6_EEE5resetB8ne180100EPS6_
FNA:9,0,_ZNSt3__110unique_ptrINS_18basic_stringstreamIcNS_11char_traitsIcEENS_9allocatorIcEEEENS_14default_deleteIS6_EEE5resetB8ne180100EPS6_
FNL:10,505,506
FNA:10,0,_ZNSt3__1eqB8ne180100INS_12basic_stringIcNS_11char_traitsIcEENS_9allocatorIcEEEENS_14default_deleteIS6_EEEEbRKNS_10unique_ptrIT_T0_EEDn
FNL:11,516,517
FNA:11,0,_ZNSt3__1neB8ne180100INS_12basic_stringIcNS_11char_traitsIcEENS_9allocatorIcEEEENS_14default_deleteIS6_EEEEbRKNS_10unique_ptrIT_T0_EEDn
FNL:12,596,597
FNA:12,0,_ZNSt3__111make_uniqueB8ne180100INS_12basic_stringIcNS_11char_traitsIcEENS_9allocatorIcEEEEJEEENS_11__unique_ifIT_E15__unique_singleEDpOT0_
FNL:13,63,67
FNA:13,0,_ZNKSt3__114default_deleteINS_12basic_stringIcNS_11char_traitsIcEENS_9allocatorIcEEEEEclB8ne180100EPS6_
FNA:13,0,_ZNKSt3__114default_deleteINS_18basic_stringstreamIcNS_11char_traitsIcEENS_9allocatorIcEEEEEclB8ne180100EPS6_
FNF:14
FNH:3
DA:63,0
DA:66,0
DA:67,0
DA:167,208
DA:174,0
DA:175,0
DA:206,0
DA:207,0
DA:208,0
DA:209,0
DA:236,584
DA:243,0
DA:244,0
DA:246,0
DA:248,0
DA:252,0
DA:253,0
DA:256,0
DA:257,0
DA:258,0
DA:259,0
DA:262,292
DA:263,292
DA:264,292
DA:265,292
DA:266,0
DA:267,292
DA:505,0
DA:506,0
DA:516,0
DA:517,0
DA:596,0
DA:597,0
LF:33
LH:7
end_of_record
TN:
SF:/Applications/Xcode.app/Contents/Developer/Platforms/MacOSX.platform/Developer/SDKs/MacOSX.sdk/usr/include/c++/v1/__split_buffer
FNL:0,104
FNA:0,502,_ZNSt3__114__split_bufferIP8HashNodeINS_12basic_stringIcNS_11char_traitsIcEENS_9allocatorIcEEEEiERNS5_IS9_EEE7__allocB8ne180100Ev
FNA:0,34,_ZNSt3__114__split_bufferIP8HashNodeIiNS_12basic_stringIcNS_11char_traitsIcEENS_9allocatorIcEEEEERNS5_IS9_EEE7__allocB8ne180100Ev
FNA:0,28,_ZNSt3__114__split_bufferIP8HashNodeIiiERNS_9allocatorIS3_EEE7__allocB8ne180100Ev
FNA:0,152,_ZNSt3__114__split_bufferIiRNS_9allocatorIiEEE7__allocB8ne180100Ev
FNL:1,109
FNA:1,44,_ZNSt3__114__split_bufferIP8HashNodeINS_12basic_stringIcNS_11char_traitsIcEENS_9allocatorIcEEEEiERNS5_IS9_EEE9__end_capB8ne180100Ev
FNA:1,4,_ZNSt3__114__split_bufferIP8HashNodeIiNS_12basic_stringIcNS_11char_traitsIcEENS_9allocatorIcEEEEERNS5_IS9_EEE9__end_capB8ne180100Ev
FNA:1,8,_ZNSt3__114__split_bufferIP8HashNodeIiiERNS_9allocatorIS3_EEE9__end_capB8ne180100Ev
FNA:1,28,_ZNSt3__114__split_bufferIiRNS_9allocatorIiEEE9__end_capB8ne180100Ev
FNL:2,110
FNA:2,0,_ZNKSt3__114__split_bufferIP8HashNodeINS_12basic_stringIcNS_11char_traitsIcEENS_9allocatorIcEEEEiERNS5_IS9_EEE9__end_capB8ne180100Ev
FNA:2,0,_ZNKSt3__114__split_bufferIP8HashNodeIiNS_12basic_stringIcNS_11char_traitsIcEENS_9allocatorIcEEEEERNS5_IS9_EEE9__end_capB8ne180100Ev
FNA:2,0,_ZNKSt3__114__split_bufferIP8HashNodeIiiERNS_9allocatorIS3_EEE9__end_capB8ne180100Ev
FNA:2,12,_ZNKSt3__114__split_bufferIiRNS_9allocatorIiEEE9__end_capB8ne180100Ev
FNL:3,120
FNA:3,22,_ZNSt3__114__split_bufferIP8HashNodeINS_12basic_stringIcNS_11char_traitsIcEENS_9allocatorIcEEEEiERNS5_IS9_EEE5clearB8ne180100Ev
FNA:3,2,_ZNSt3__114__split_bufferIP8HashNodeIiNS_12basic_stringIcNS_11char_traitsIcEENS_9allocatorIcEEEEERNS5_IS9_EEE5clearB8ne180100Ev
FNA:3,4,_ZNSt3__114__split_bufferIP8HashNodeIiiERNS_9allocatorIS3_EEE5clearB8ne180100Ev
FNA:3,14,_ZNSt3__114__split_bufferIiRNS_9allocatorIiEEE5clearB8ne180100Ev
FNL:4,128
FNA:4,0,_ZNKSt3__114__split_bufferIP8HashNodeINS_12basic_stringIcNS_11char_traitsIcEENS_9allocatorIcEEEEiERNS5_IS9_EEE8capacityB8ne180100Ev
FNA:4,0,_ZNKSt3__114__split_bufferIP8HashNodeIiNS_12basic_stringIcNS_11char_traitsIcEENS_9allocatorIcEEEEERNS5_IS9_EEE8capacityB8ne180100Ev
FNA:4,0,_ZNKSt3__114__split_bufferIP8HashNodeIiiERNS_9allocatorIS3_EEE8capacityB8ne180100Ev
FNA:4,12,_ZNKSt3__114__split_bufferIiRNS_9allocatorIiEEE8capacityB8ne180100Ev
FNL:5,183
FNA:5,22,_ZNSt3__114__split_bufferIP8HashNodeINS_12basic_stringIcNS_11char_traitsIcEENS_9allocatorIcEEEEiERNS5_IS9_EEE17__destruct_at_endB8ne180100EPS9_
FNA:5,2,_ZNSt3__114__split_bufferIP8HashNodeIiNS_12basic_stringIcNS_11char_traitsIcEENS_9allocatorIcEEEEERNS5_IS9_EEE17__destruct_at_endB8ne180100EPS9_
FNA:5,4,_ZNSt3__114__split_bufferIP8HashNodeIiiERNS_9allocatorIS3_EEE17__destruct_at_endB8ne180100EPS3_
FNA:5,14,_ZNSt3__114__split_bufferIiRNS_9allocatorIiEEE17__destruct_at_endB8ne180100EPi
FNL:6,204
FNA:6,22,_ZNSt3__114__split_bufferIP8HashNodeINS_12basic_stringIcNS_11char_traitsIcEENS_9allocatorIcEEEEiERNS5_IS9_EEE21_ConstructTransactionC1B8ne180100EPPS9_m
FNA:6,22,_ZNSt3__114__split_bufferIP8HashNodeINS_12basic_stringIcNS_11char_traitsIcEENS_9allocatorIcEEEEiERNS5_IS9_EEE21_ConstructTransactionC2B8ne180100EPPS9_m
FNA:6,2,_ZNSt3__114__split_bufferIP8HashNodeIiNS_12basic_stringIcNS_11char_traitsIcEENS_9allocatorIcEEEEERNS5_IS9_EEE21_ConstructTransactionC1B8ne180100EPPS9_m
FNA:6,2,_ZNSt3__114__split_bufferIP8HashNodeIiNS_12basic_stringIcNS_11char_traitsIcEENS_9allocatorIcEEEEERNS5_IS9_EEE21_ConstructTransactionC2B8ne180100EPPS9_m
FNA:6,4,_ZNSt3__114__split_bufferIP8HashNodeIiiERNS_9allocatorIS3_EEE21_ConstructTransactionC1B8ne180100EPPS3_m
FNA:6,4,_ZNSt3__114__split_bufferIP8HashNodeIiiERNS_9allocatorIS3_EEE21_ConstructTransactionC2B8ne180100EPPS3_m
FNL:7,210
FNA:7,22,_ZNSt3__114__split_bufferIP8HashNodeINS_12basic_stringIcNS_11char_traitsIcEENS_9allocatorIcEEEEiERNS5_IS9_EEE21_ConstructTransactionD1B8ne180100Ev
FNA:7,22,_ZNSt3__114__split_bufferIP8HashNodeINS_12basic_stringIcNS_11char_traitsIcEENS_9allocatorIcEEEEiERNS5_IS9_EEE21_ConstructTransactionD2B8ne180100Ev
FNA:7,2,_ZNSt3__114__split_bufferIP8HashNodeIiNS_12basic_stringIcNS_11char_traitsIcEENS_9allocatorIcEEEEERNS5_IS9_EEE21_ConstructTransactionD1B8ne180100Ev
FNA:7,2,_ZNSt3__114__split_bufferIP8HashNodeIiNS_12basic_stringIcNS_11char_traitsIcEENS_9allocatorIcEEEEERNS5_IS9_EEE21_ConstructTransactionD2B8ne180100Ev
FNA:7,4,_ZNSt3__114__split_bufferIP8HashNodeIiiERNS_9allocatorIS3_EEE21_ConstructTransactionD1B8ne180100Ev
FNA:7,4,_ZNSt3__114__split_bufferIP8HashNodeIiiERNS_9allocatorIS3_EEE21_ConstructTransactionD2B8ne180100Ev
FNL:8,261
FNA:8,22,_ZNSt3__114__split_bufferIP8HashNodeINS_12basic_stringIcNS_11char_traitsIcEENS_9allocatorIcEEEEiERNS5_IS9_EEE18__construct_at_endEmRKS9_
FNA:8,2,_ZNSt3__114__split_bufferIP8HashNodeIiNS_12basic_stringIcNS_11char_traitsIcEENS_9allocatorIcEEEEERNS5_IS9_EEE18__construct_at_endEmRKS9_
FNA:8,4,_ZNSt3__114__split_bufferIP8HashNodeIiiERNS_9allocatorIS3_EEE18__construct_at_endEmRKS3_
FNL:9,325
FNA:9,22,_ZNSt3__114__split_bufferIP8HashNodeINS_12basic_stringIcNS_11char_traitsIcEENS_9allocatorIcEEEEiERNS5_IS9_EEE17__destruct_at_endB8ne180100EPS9_NS_17integral_constantIbLb0EEE
FNA:9,2,_ZNSt3__114__split_bufferIP8HashNodeIiNS_12basic_stringIcNS_11char_traitsIcEENS_9allocatorIcEEEEERNS5_IS9_EEE17__destruct_at_endB8ne180100EPS9_NS_17integral_constantIbLb0EEE
FNA:9,4,_ZNSt3__114__split_bufferIP8HashNodeIiiERNS_9allocatorIS3_EEE17__destruct_at_endB8ne180100EPS3_NS_17integral_constantIbLb0EEE
FNA:9,14,_ZNSt3__114__split_bufferIiRNS_9allocatorIiEEE17__destruct_at_endB8ne180100EPiNS_17integral_constantIbLb0EEE
FNL:10,338
FNA:10,22,_ZNSt3__114__split_bufferIP8HashNodeINS_12basic_stringIcNS_11char_traitsIcEENS_9allocatorIcEEEEiERNS5_IS9_EEEC1EmmSB_
FNA:10,22,_ZNSt3__114__split_bufferIP8HashNodeINS_12basic_stringIcNS_11char_traitsIcEENS_9allocatorIcEEEEiERNS5_IS9_EEEC2EmmSB_
FNA:10,2,_ZNSt3__114__split_bufferIP8HashNodeIiNS_12basic_stringIcNS_11char_traitsIcEENS_9allocatorIcEEEEERNS5_IS9_EEEC1EmmSB_
FNA:10,2,_ZNSt3__114__split_bufferIP8HashNodeIiNS_12basic_stringIcNS_11char_traitsIcEENS_9allocatorIcEEEEERNS5_IS9_EEEC2EmmSB_
FNA:10,4,_ZNSt3__114__split_bufferIP8HashNodeIiiERNS_9allocatorIS3_EEEC1EmmS6_
FNA:10,4,_ZNSt3__114__split_bufferIP8HashNodeIiiERNS_9allocatorIS3_EEEC2EmmS6_
FNA:10,14,_ZNSt3__114__split_bufferIiRNS_9allocatorIiEEEC1EmmS3_
FNA:10,14,_ZNSt3__114__split_bufferIiRNS_9allocatorIiEEEC2EmmS3_
FNL:11,352
FNA:11,22,_ZNSt3__114__split_bufferIP8HashNodeINS_12basic_stringIcNS_11char_traitsIcEENS_9allocatorIcEEEEiERNS5_IS9_EEED1Ev
FNA:11,22,_ZNSt3__114__split_bufferIP8HashNodeINS_12basic_stringIcNS_11char_traitsIcEENS_9allocatorIcEEEEiERNS5_IS9_EEED2Ev
FNA:11,2,_ZNSt3__114__split_bufferIP8HashNodeIiNS_12basic_stringIcNS_11char_traitsIcEENS_9allocatorIcEEEEERNS5_IS9_EEED1Ev
FNA:11,2,_ZNSt3__114__split_bufferIP8HashNodeIiNS_12basic_stringIcNS_11char_traitsIcEENS_9allocatorIcEEEEERNS5_IS9_EEED2Ev
FNA:11,4,_ZNSt3__114__split_bufferIP8HashNodeIiiERNS_9allocatorIS3_EEED1Ev
FNA:11,4,_ZNSt3__114__split_bufferIP8HashNodeIiiERNS_9allocatorIS3_EEED2Ev
FNA:11,14,_ZNSt3__114__split_bufferIiRNS_9allocatorIiEEED1Ev
FNA:11,14,_ZNSt3__114__split_bufferIiRNS_9allocatorIiEEED2Ev
FNF:12
FNH:12
DA:104,716
DA:109,84
DA:110,12
DA:111,12
DA:120,42
DA:128,12
DA:129,12
DA:183,42
DA:184,42
DA:185,42
DA:204,56
DA:206,28
DA:207,28
DA:208,56
DA:210,56
DA:261,28
DA:262,28
DA:263,564
DA:264,536
DA:265,536
DA:266,28
DA:325,42
DA:326,168
DA:327,126
DA:328,42
DA:338,84
DA:339,84
DA:340,42
DA:341,0
DA:342,0
DA:343,42
DA:344,42
DA:345,42
DA:347,42
DA:348,42
DA:349,84
DA:352,84
DA:353,42
DA:354,42
DA:355,12
DA:356,84
LF:41
LH:39
end_of_record
TN:
SF:/Applications/Xcode.app/Contents/Developer/Platforms/MacOSX.platform/Developer/SDKs/MacOSX.sdk/usr/include/c++/v1/__string/char_traits.h
FNL:0,189,191
FNA:0,510,_ZNSt3__111char_traitsIcE6assignB8ne180100ERcRKc
FNL:1,204,222
FNA:1,56,_ZNSt3__111char_traitsIcE7compareB8ne180100EPKcS3_m
FNL:2,226,227
FNA:2,2022,_ZNSt3__111char_traitsIcE6lengthB8ne180100EPKc
FNL:3,231,235
FNA:3,56,_ZNSt3__111char_traitsIcE4findB8ne180100EPKcmRS2_
FNL:4,243,247
FNA:4,24,_ZNSt3__111char_traitsIcE4copyB8ne180100EPcPKcm
FNL:5,251,253
FNA:5,12,_ZNSt3__111char_traitsIcE6assignB8ne180100EPcmc
FNL:6,265,266
FNA:6,1876,_ZNSt3__111char_traitsIcE11eq_int_typeB8ne180100Eii
FNL:7,268,268
FNA:7,2412,_ZNSt3__111char_traitsIcE3eofB8ne180100Ev
FNL:8,624,659
FNA:8,10,_ZNSt3__118__search_substringB8ne180100IcNS_11char_traitsIcEEEEPKT_S5_S5_S5_S5_
FNL:9,663,675
FNA:9,10,_ZNSt3__110__str_findB8ne180100IcmNS_11char_traitsIcEELm18446744073709551615EEET0_PKT_S3_S6_S3_S3_
FNL:10,792,794
FNA:10,5166,_ZNSt3__116__do_string_hashB8ne180100IPKcEEmT_S3_
FNF:11
FNH:11
DA:189,510
DA:190,510
DA:191,510
DA:204,56
DA:222,56
DA:226,2022
DA:227,2022
DA:231,56
DA:232,56
DA:233,0
DA:234,56
DA:235,56
DA:243,24
DA:246,24
DA:247,24
DA:251,12
DA:252,12
DA:253,12
DA:265,1876
DA:266,1876
DA:268,2412
DA:624,10
DA:628,10
DA:629,10
DA:630,0
DA:632,10
DA:633,10
DA:634,0
DA:637,10
DA:638,56
DA:639,56
DA:641,56
DA:642,0
DA:645,56
DA:646,56
DA:647,0
DA:654,56
DA:655,10
DA:657,46
DA:659,10
DA:663,10
DA:664,10
DA:665,0
DA:667,10
DA:668,0
DA:670,10
DA:672,10
DA:673,0
DA:674,10
DA:675,10
DA:792,5166
DA:794,5166
LF:52
LH:44
end_of_record
TN:
SF:/Applications/Xcode.app/Contents/Developer/Platforms/MacOSX.platform/Developer/SDKs/MacOSX.sdk/usr/include/c++/v1/__string/constexpr_c_functions.h
FNL:0,116,136
FNA:0,56,_ZNSt3__118__constexpr_memchrB8ne180100IKccEEPT_S3_T0_m
FNL:1,195,214
FNA:1,24,_ZNSt3__119__constexpr_memmoveB8ne180100IcKcLi0EEEPT_S3_PT0_NS_15__element_countE
FNA:1,2,_ZNSt3__119__constexpr_memmoveB8ne180100IiKiLi0EEEPT_S3_PT0_NS_15__element_countE
FNL:2,38,49
FNA:2,2022,_ZNSt3__118__constexpr_strlenB8ne180100EPKc
FNF:3
FNH:3
DA:38,2022
DA:49,2022
DA:116,56
DA:134,56
DA:135,56
DA:136,56
DA:195,26
DA:196,26
DA:211,26
DA:212,22
DA:213,22
DA:214,26
LF:12
LH:12
end_of_record
TN:
SF:/Applications/Xcode.app/Contents/Developer/Platforms/MacOSX.platform/Developer/SDKs/MacOSX.sdk/usr/include/c++/v1/__utility/convert_to_integral.h
FNL:0,30,31
FNA:0,12,_ZNSt3__121__convert_to_integralB8ne180100Em
FNF:1
FNH:1
DA:30,12
DA:31,12
LF:2
LH:2
end_of_record
TN:
SF:/Applications/Xcode.app/Contents/Developer/Platforms/MacOSX.platform/Developer/SDKs/MacOSX.sdk/usr/include/c++/v1/__utility/exception_guard.h
FNL:0,136,137
FNA:0,2,_ZNSt3__122__make_exception_guardB8ne180100INS_6vectorIiNS_9allocatorIiEEE16__destroy_vectorEEENS_28__exception_guard_exceptionsIT_EES7_
FNL:1,68,69
FNA:1,2,_ZNSt3__128__exception_guard_exceptionsINS_6vectorIiNS_9allocatorIiEEE16__destroy_vectorEEC1B8ne180100ES5_
FNA:1,2,_ZNSt3__128__exception_guard_exceptionsINS_6vectorIiNS_9allocatorIiEEE16__destroy_vectorEEC2B8ne180100ES5_
FNL:2,82,82
FNA:2,2,_ZNSt3__128__exception_guard_exceptionsINS_6vectorIiNS_9allocatorIiEEE16__destroy_vectorEE10__completeB8ne180100Ev
FNL:3,84,87
FNA:3,2,_ZNSt3__128__exception_guard_exceptionsINS_6vectorIiNS_9allocatorIiEEE16__destroy_vectorEED1B8ne180100Ev
FNA:3,2,_ZNSt3__128__exception_guard_exceptionsINS_6vectorIiNS_9allocatorIiEEE16__destroy_vectorEED2B8ne180100Ev
FNF:4
FNH:4
DA:68,4
DA:69,4
DA:82,2
DA:84,4
DA:85,2
DA:86,0
DA:87,4
DA:136,2
DA:137,2
LF:9
LH:8
end_of_record
TN:
SF:/Applications/Xcode.app/Contents/Developer/Platforms/MacOSX.platform/Developer/SDKs/MacOSX.sdk/usr/include/c++/v1/__utility/pair.h
FNL:0,204,208
FNA:0,66,_ZNSt3__14pairINS_16reverse_iteratorIPP8HashNodeINS_12basic_stringIcNS_11char_traitsIcEENS_9allocatorIcEEEEiEEESC_EC1B8ne180100ISC_SC_Li0EEEOT_OT0_
FNA:0,66,_ZNSt3__14pairINS_16reverse_iteratorIPP8HashNodeINS_12basic_stringIcNS_11char_traitsIcEENS_9allocatorIcEEEEiEEESC_EC2B8ne180100ISC_SC_Li0EEEOT_OT0_
FNA:0,6,_ZNSt3__14pairINS_16reverse_iteratorIPP8HashNodeIiNS_12basic_stringIcNS_11char_traitsIcEENS_9allocatorIcEEEEEEESC_EC1B8ne180100ISC_SC_Li0EEEOT_OT0_
FNA:0,6,_ZNSt3__14pairINS_16reverse_iteratorIPP8HashNodeIiNS_12basic_stringIcNS_11char_traitsIcEENS_9allocatorIcEEEEEEESC_EC2B8ne180100ISC_SC_Li0EEEOT_OT0_
FNA:0,12,_ZNSt3__14pairINS_16reverse_iteratorIPP8HashNodeIiiEEES6_EC1B8ne180100IS6_S6_Li0EEEOT_OT0_
FNA:0,12,_ZNSt3__14pairINS_16reverse_iteratorIPP8HashNodeIiiEEES6_EC2B8ne180100IS6_S6_Li0EEEOT_OT0_
FNA:0,42,_ZNSt3__14pairINS_16reverse_iteratorIPiEES3_EC1B8ne180100IS3_S3_Li0EEEOT_OT0_
FNA:0,42,_ZNSt3__14pairINS_16reverse_iteratorIPiEES3_EC2B8ne180100IS3_S3_Li0EEEOT_OT0_
FNA:0,24,_ZNSt3__14pairIPKcPcEC1B8ne180100IRS2_S3_Li0EEEOT_OT0_
FNA:0,24,_ZNSt3__14pairIPKcPcEC1B8ne180100IS2_S3_Li0EEEOT_OT0_
FNA:0,24,_ZNSt3__14pairIPKcPcEC2B8ne180100IRS2_S3_Li0EEEOT_OT0_
FNA:0,24,_ZNSt3__14pairIPKcPcEC2B8ne180100IS2_S3_Li0EEEOT_OT0_
FNA:0,24,_ZNSt3__14pairIPKcS2_EC1B8ne180100IS2_S2_Li0EEEOT_OT0_
FNA:0,24,_ZNSt3__14pairIPKcS2_EC2B8ne180100IS2_S2_Li0EEEOT_OT0_
FNA:0,2,_ZNSt3__14pairIPKiPiEC1B8ne180100IRS2_S3_Li0EEEOT_OT0_
FNA:0,2,_ZNSt3__14pairIPKiPiEC1B8ne180100IS2_S3_Li0EEEOT_OT0_
FNA:0,2,_ZNSt3__14pairIPKiPiEC2B8ne180100IRS2_S3_Li0EEEOT_OT0_
FNA:0,2,_ZNSt3__14pairIPKiPiEC2B8ne180100IS2_S3_Li0EEEOT_OT0_
FNA:0,4,_ZNSt3__14pairIPKiS2_EC1B8ne180100IS2_S2_Li0EEEOT_OT0_
FNA:0,4,_ZNSt3__14pairIPKiS2_EC2B8ne180100IS2_S2_Li0EEEOT_OT0_
FNA:0,0,_ZNSt3__14pairImmEC1B8ne180100ImmLi0EEEOT_OT0_
FNA:0,0,_ZNSt3__14pairImmEC2B8ne180100ImmLi0EEEOT_OT0_
FNL:1,298,304
FNA:1,0,_ZNSt3__14pairImmEaSB8ne180100EOS1_
FNL:2,599,601
FNA:2,66,_ZNSt3__19make_pairB8ne180100INS_16reverse_iteratorIPP8HashNodeINS_12basic_stringIcNS_11char_traitsIcEENS_9allocatorIcEEEEiEEESC_EENS_4pairINS_18__unwrap_ref_decayIT_E4typeENSE_IT0_E4typeEEEOSF_OSI_
FNA:2,6,_ZNSt3__19make_pairB8ne180100INS_16reverse_iteratorIPP8HashNodeIiNS_12basic_stringIcNS_11char_traitsIcEENS_9allocatorIcEEEEEEESC_EENS_4pairINS_18__unwrap_ref_decayIT_E4typeENSE_IT0_E4typeEEEOSF_OSI_
FNA:2,12,_ZNSt3__19make_pairB8ne180100INS_16reverse_iteratorIPP8HashNodeIiiEEES6_EENS_4pairINS_18__unwrap_ref_decayIT_E4typeENS8_IT0_E4typeEEEOS9_OSC_
FNA:2,42,_ZNSt3__19make_pairB8ne180100INS_16reverse_iteratorIPiEES3_EENS_4pairINS_18__unwrap_ref_decayIT_E4typeENS5_IT0_E4typeEEEOS6_OS9_
FNA:2,24,_ZNSt3__19make_pairB8ne180100IPKcPcEENS_4pairINS_18__unwrap_ref_decayIT_E4typeENS5_IT0_E4typeEEEOS6_OS9_
FNA:2,24,_ZNSt3__19make_pairB8ne180100IPKcS2_EENS_4pairINS_18__unwrap_ref_decayIT_E4typeENS4_IT0_E4typeEEEOS5_OS8_
FNA:2,2,_ZNSt3__19make_pairB8ne180100IPKiPiEENS_4pairINS_18__unwrap_ref_decayIT_E4typeENS5_IT0_E4typeEEEOS6_OS9_
FNA:2,4,_ZNSt3__19make_pairB8ne180100IPKiS2_EENS_4pairINS_18__unwrap_ref_decayIT_E4typeENS4_IT0_E4typeEEEOS5_OS8_
FNA:2,24,_ZNSt3__19make_pairB8ne180100IRPKcPcEENS_4pairINS_18__unwrap_ref_decayIT_E4typeENS6_IT0_E4typeEEEOS7_OSA_
FNA:2,2,_ZNSt3__19make_pairB8ne180100IRPKiPiEENS_4pairINS_18__unwrap_ref_decayIT_E4typeENS6_IT0_E4typeEEEOS7_OSA_
FNF:3
FNH:2
DA:204,412
DA:207,412
DA:208,412
DA:298,0
DA:302,0
DA:303,0
DA:304,0
DA:599,206
DA:600,206
DA:601,206
LF:10
LH:6
end_of_record
TN:
SF:/Applications/Xcode.app/Contents/Developer/Platforms/MacOSX.platform/Developer/SDKs/MacOSX.sdk/usr/include/c++/v1/__utility/swap.h
FNL:0,40,45
FNA:0,66,_ZNSt3__14swapB8ne180100IPP8HashNodeINS_12basic_stringIcNS_11char_traitsIcEENS_9allocatorIcEEEEiEEENS_9enable_ifIXaasr21is_move_constructibleIT_EE5valuesr18is_move_assignableISC_EE5valueEvE4typeERSC_SF_
FNA:0,6,_ZNSt3__14swapB8ne180100IPP8HashNodeIiNS_12basic_stringIcNS_11char_traitsIcEENS_9allocatorIcEEEEEEENS_9enable_ifIXaasr21is_move_constructibleIT_EE5valuesr18is_move_assignableISC_EE5valueEvE4typeERSC_SF_
FNA:0,12,_ZNSt3__14swapB8ne180100IPP8HashNodeIiiEEENS_9enable_ifIXaasr21is_move_constructibleIT_EE5valuesr18is_move_assignableIS6_EE5valueEvE4typeERS6_S9_
FNA:0,42,_ZNSt3__14swapB8ne180100IPiEENS_9enable_ifIXaasr21is_move_constructibleIT_EE5valuesr18is_move_assignableIS3_EE5valueEvE4typeERS3_S6_
FNA:0,0,_ZNSt3__14swapB8ne180100ImEENS_9enable_ifIXaasr21is_move_constructibleIT_EE5valuesr18is_move_assignableIS2_EE5valueEvE4typeERS2_S5_
FNF:1
FNH:1
DA:40,126
DA:42,126
DA:43,126
DA:44,126
DA:45,126
LF:5
LH:5
end_of_record
TN:
SF:/Applications/Xcode.app/Contents/Developer/Platforms/MacOSX.platform/Developer/SDKs/MacOSX.sdk/usr/include/c++/v1/initializer_list
FNL:0,78
FNA:0,6,_ZNKSt16initializer_listIiE4sizeB8ne180100Ev
FNL:1,80
FNA:1,2,_ZNKSt16initializer_listIiE5beginB8ne180100Ev
FNL:2,82
FNA:2,2,_ZNKSt16initializer_listIiE3endB8ne180100Ev
FNF:3
FNH:3
DA:78,6
DA:80,2
DA:82,2
LF:3
LH:3
end_of_record
TN:
SF:/Applications/Xcode.app/Contents/Developer/Platforms/MacOSX.platform/Developer/SDKs/MacOSX.sdk/usr/include/c++/v1/ios
FNL:0,363
FNA:0,536,_ZNSt3__18ios_baseC2B8ne180100Ev
FNL:1,367
FNA:1,1928,_ZNKSt3__18ios_base5rdbufB8ne180100Ev
FNL:2,369
FNA:2,52,_ZNSt3__18ios_base5rdbufB8ne180100EPv
FNL:3,455
FNA:3,1876,_ZNKSt3__18ios_base5flagsB8ne180100Ev
FNL:4,482
FNA:4,0,_ZNSt3__18ios_base9precisionB8ne180100El
FNL:5,490
FNA:5,1876,_ZNKSt3__18ios_base5widthB8ne180100Ev
FNL:6,492
FNA:6,1876,_ZNSt3__18ios_base5widthB8ne180100El
FNL:7,502
FNA:7,0,_ZNSt3__18ios_base8setstateB8ne180100Ej
FNL:8,544
FNA:8,0,_ZNSt3__19basic_iosIcNS_11char_traitsIcEEE8setstateB8ne180100Ej
FNL:9,575
FNA:9,536,_ZNSt3__19basic_iosIcNS_11char_traitsIcEEEC2B8ne180100Ev
FNL:10,598
FNA:10,536,_ZNSt3__19basic_iosIcNS_11char_traitsIcEEE4initB8ne180100EPNS_15basic_streambufIcS2_EE
FNL:11,618
FNA:11,1928,_ZNKSt3__19basic_iosIcNS_11char_traitsIcEEE5rdbufB8ne180100Ev
FNL:12,624
FNA:12,52,_ZNSt3__19basic_iosIcNS_11char_traitsIcEEE5rdbufB8ne180100EPNS_15basic_streambufIcS2_EE
FNL:13,645
FNA:13,552,_ZNKSt3__19basic_iosIcNS_11char_traitsIcEEE5widenB8ne180100Ec
FNL:14,650
FNA:14,1876,_ZNKSt3__19basic_iosIcNS_11char_traitsIcEEE4fillB8ne180100Ev
FNF:15
FNH:12
DA:363,536
DA:364,536
DA:367,1928
DA:369,52
DA:370,52
DA:371,52
DA:372,52
DA:455,1876
DA:482,0
DA:483,0
DA:484,0
DA:485,0
DA:490,1876
DA:492,1876
DA:493,1876
DA:494,1876
DA:495,1876
DA:502,0
DA:544,0
DA:575,536
DA:576,536
DA:598,536
DA:599,536
DA:600,536
DA:601,536
DA:602,536
DA:618,1928
DA:619,1928
DA:624,52
DA:625,52
DA:626,52
DA:627,52
DA:645,552
DA:646,552
DA:647,0
DA:650,1876
DA:651,1876
DA:652,516
DA:653,1876
LF:39
LH:32
end_of_record
TN:
SF:/Applications/Xcode.app/Contents/Developer/Platforms/MacOSX.platform/Developer/SDKs/MacOSX.sdk/usr/include/c++/v1/istream
FNL:0,1172
FNA:0,0,_ZNSt3__114basic_iostreamIcNS_11char_traitsIcEEEC2B8ne180100EPNS_15basic_streambufIcS2_EE
FNL:1,200
FNA:1,0,_ZNSt3__113basic_istreamIcNS_11char_traitsIcEEEC2B8ne180100EPNS_15basic_streambufIcS2_EE
FNF:2
FNH:0
DA:200,0
DA:201,0
DA:202,0
DA:203,0
DA:1172,0
DA:1173,0
LF:6
LH:0
end_of_record
TN:
SF:/Applications/Xcode.app/Contents/Developer/Platforms/MacOSX.platform/Developer/SDKs/MacOSX.sdk/usr/include/c++/v1/limits
FNL:0,203
FNA:0,44,_ZNSt3__123__libcpp_numeric_limitsIlLb1EE3maxB8ne180100Ev
FNA:0,12,_ZNSt3__123__libcpp_numeric_limitsImLb1EE3maxB8ne180100Ev
FNL:1,446
FNA:1,44,_ZNSt3__114numeric_limitsIlE3maxB8ne180100Ev
FNA:1,12,_ZNSt3__114numeric_limitsImE3maxB8ne180100Ev
FNF:2
FNH:2
DA:203,56
DA:446,56
LF:2
LH:2
end_of_record
TN:
SF:/Applications/Xcode.app/Contents/Developer/Platforms/MacOSX.platform/Developer/SDKs/MacOSX.sdk/usr/include/c++/v1/locale
FNL:0,1240
FNA:0,1876,_ZNSt3__116__pad_and_outputB8ne180100IcNS_11char_traitsIcEEEENS_19ostreambuf_iteratorIT_T0_EES6_PKS4_S8_S8_RNS_8ios_baseES4_
FNF:1
FNH:1
DA:1240,1876
DA:1247,1876
DA:1248,0
DA:1249,1876
DA:1250,1876
DA:1251,1876
DA:1252,0
DA:1254,1876
DA:1255,1876
DA:1256,1876
DA:1257,0
DA:1258,0
DA:1259,0
DA:1261,0
DA:1262,1876
DA:1263,0
DA:1264,0
DA:1265,0
DA:1266,0
DA:1268,0
DA:1269,1876
DA:1270,1876
DA:1271,1876
DA:1272,0
DA:1273,0
DA:1275,1876
DA:1276,1876
DA:1277,1876
DA:1278,1876
LF:29
LH:16
end_of_record
TN:
SF:/Applications/Xcode.app/Contents/Developer/Platforms/MacOSX.platform/Developer/SDKs/MacOSX.sdk/usr/include/c++/v1/new
FNL:0,173
FNA:0,0,_ZSt28__throw_bad_array_new_lengthB8ne180100v
FNL:1,292
FNA:1,88,_ZNSt3__124__is_overaligned_for_newB8ne180100Em
FNL:2,301
FNA:2,44,_ZNSt3__121__libcpp_operator_newB8ne180100IJmEEEPvDpT_
FNA:2,0,_ZNSt3__121__libcpp_operator_newB8ne180100IJmSt11align_val_tEEEPvDpT_
FNL:3,310
FNA:3,44,_ZNSt3__124__libcpp_operator_deleteB8ne180100IJPvEEEvDpT_
FNA:3,0,_ZNSt3__124__libcpp_operator_deleteB8ne180100IJPvSt11align_val_tEEEvDpT_
FNL:4,318
FNA:4,44,_ZNSt3__117__libcpp_allocateB8ne180100Emm
FNL:5,331
FNA:5,44,_ZNSt3__127__do_deallocate_handle_sizeB8ne180100IJEEEvPvmDpT_
FNA:5,0,_ZNSt3__127__do_deallocate_handle_sizeB8ne180100IJSt11align_val_tEEEvPvmDpT_
FNL:6,340
FNA:6,44,_ZNSt3__119__libcpp_deallocateB8ne180100EPvmm
FNF:7
FNH:6
DA:173,0
DA:175,0
DA:292,88
DA:294,88
DA:301,44
DA:303,44
DA:310,44
DA:312,44
DA:316,44
DA:318,44
DA:320,44
DA:321,0
DA:322,0
DA:327,44
DA:328,44
DA:331,44
DA:334,44
DA:340,44
DA:345,44
DA:346,0
DA:347,0
DA:349,44
DA:352,44
LF:23
LH:17
end_of_record
TN:
SF:/Applications/Xcode.app/Contents/Developer/Platforms/MacOSX.platform/Developer/SDKs/MacOSX.sdk/usr/include/c++/v1/ostream
FNL:0,218
FNA:0,536,_ZNSt3__113basic_ostreamIcNS_11char_traitsIcEEEC2B8ne180100EPNS_15basic_streambufIcS2_EE
FNL:1,241
FNA:1,36,_ZNSt3__113basic_ostreamIcNS_11char_traitsIcEEElsB8ne180100EPFRS3_S4_E
FNL:2,295
FNA:2,0,_ZNSt3__113basic_ostreamIcNS_11char_traitsIcEEEC2B8ne180100Ev
FNL:3,309
FNA:3,1876,_ZNKSt3__113basic_ostreamIcNS_11char_traitsIcEEE6sentrycvbB8ne180100Ev
FNL:4,667
FNA:4,1876,_ZNSt3__124__put_character_sequenceB8ne180100IcNS_11char_traitsIcEEEERNS_13basic_ostreamIT_T0_EES7_PKS4_m
FNL:5,725
FNA:5,510,_ZNSt3__1lsB8ne180100INS_11char_traitsIcEEEERNS_13basic_ostreamIcT_EES6_c
FNL:6,786
FNA:6,1354,_ZNSt3__1lsB8ne180100INS_11char_traitsIcEEEERNS_13basic_ostreamIcT_EES6_PKc
FNL:7,891
FNA:7,36,_ZNSt3__14endlB8ne180100IcNS_11char_traitsIcEEEERNS_13basic_ostreamIT_T0_EES7_
FNL:8,925
FNA:8,12,_ZNSt3__1lsB8ne180100IcNS_11char_traitsIcEENS_9allocatorIcEEEERNS_13basic_ostreamIT_T0_EES9_RKNS_12basic_stringIS6_S7_T1_EE
FNF:9
FNH:8
DA:218,536
DA:219,536
DA:220,536
DA:241,36
DA:242,36
DA:295,0
DA:309,1876
DA:667,1876
DA:671,1876
DA:672,1876
DA:674,1876
DA:675,1876
DA:676,1876
DA:677,1876
DA:678,1876
DA:679,1876
DA:680,1876
DA:681,1876
DA:682,0
DA:683,1876
DA:685,1876
DA:686,0
DA:687,0
DA:689,1876
DA:690,0
DA:725,510
DA:726,510
DA:786,1354
DA:787,1354
DA:891,36
DA:892,36
DA:893,36
DA:894,36
DA:925,12
DA:926,12
LF:35
LH:30
end_of_record
TN:
SF:/Applications/Xcode.app/Contents/Developer/Platforms/MacOSX.platform/Developer/SDKs/MacOSX.sdk/usr/include/c++/v1/sstream
FNL:0,1009
FNA:0,0,_ZNSt3__118basic_stringstreamIcNS_11char_traitsIcEENS_9allocatorIcEEEC1B8ne180100Ev
FNL:1,1065
FNA:1,0,_ZNKSt3__118basic_stringstreamIcNS_11char_traitsIcEENS_9allocatorIcEEE3strB8ne180100Ev
FNL:2,1101
FNA:2,536,_ZNSt3__115basic_stringbufIcNS_11char_traitsIcEENS_9allocatorIcEEED1Ev
FNA:2,536,_ZNSt3__115basic_stringbufIcNS_11char_traitsIcEENS_9allocatorIcEEED2Ev
FNL:3,1102
FNA:3,0,_ZNSt3__118basic_stringstreamIcNS_11char_traitsIcEENS_9allocatorIcEEED1Ev
FNA:3,0,_ZNSt3__118basic_stringstreamIcNS_11char_traitsIcEENS_9allocatorIcEEED2Ev
FNL:4,1103
FNA:4,536,_ZNSt3__119basic_ostringstreamIcNS_11char_traitsIcEENS_9allocatorIcEEED1Ev
FNA:4,536,_ZNSt3__119basic_ostringstreamIcNS_11char_traitsIcEENS_9allocatorIcEEED2Ev
FNL:5,325
FNA:5,536,_ZNSt3__115basic_stringbufIcNS_11char_traitsIcEENS_9allocatorIcEEEC1B8ne180100Ej
FNA:5,536,_ZNSt3__115basic_stringbufIcNS_11char_traitsIcEENS_9allocatorIcEEEC2B8ne180100Ej
FNL:6,901
FNA:6,536,_ZNSt3__119basic_ostringstreamIcNS_11char_traitsIcEENS_9allocatorIcEEEC1B8ne180100Ev
FNL:7,950
FNA:7,26,_ZNKSt3__119basic_ostringstreamIcNS_11char_traitsIcEENS_9allocatorIcEEE5rdbufB8ne180100Ev
FNL:8,955
FNA:8,536,_ZNKSt3__119basic_ostringstreamIcNS_11char_traitsIcEENS_9allocatorIcEEE3strB8ne180100Ev
FNF:9
FNH:6
DA:325,1072
DA:901,536
DA:950,26
DA:951,26
DA:955,536
DA:1009,0
DA:1010,0
DA:1065,0
LF:8
LH:5
end_of_record
TN:
SF:/Applications/Xcode.app/Contents/Developer/Platforms/MacOSX.platform/Developer/SDKs/MacOSX.sdk/usr/include/c++/v1/stdexcept
FNL:0,153
FNA:0,0,_ZNSt12length_errorC1B8ne180100EPKc
FNA:0,0,_ZNSt12length_errorC2B8ne180100EPKc
FNL:1,240
FNA:1,0,_ZNSt3__120__throw_length_errorB8ne180100EPKc
FNF:2
FNH:0
DA:153,0
DA:240,0
DA:242,0
DA:249,0
LF:4
LH:0
end_of_record
TN:
SF:/Applications/Xcode.app/Contents/Developer/Platforms/MacOSX.platform/Developer/SDKs/MacOSX.sdk/usr/include/c++/v1/streambuf
FNL:0,218
FNA:0,1876,_ZNSt3__115basic_streambufIcNS_11char_traitsIcEEE5sputnB8ne180100EPKcl
FNF:1
FNH:1
DA:218,1876
DA:219,1876
LF:2
LH:2
end_of_record
TN:
SF:/Applications/Xcode.app/Contents/Developer/Platforms/MacOSX.platform/Developer/SDKs/MacOSX.sdk/usr/include/c++/v1/string
FNL:0,1125
FNA:0,510,_ZNSt3__112basic_stringIcNS_11char_traitsIcEENS_9allocatorIcEEEaSB8ne180100EOS5_
FNL:1,1176
FNA:1,268618,_ZNKSt3__112basic_stringIcNS_11char_traitsIcEENS_9allocatorIcEEE4sizeB8ne180100Ev
FNL:2,1181
FNA:2,12,_ZNKSt3__112basic_stringIcNS_11char_traitsIcEENS_9allocatorIcEEE8max_sizeB8ne180100Ev
FNL:3,1216
FNA:3,16,_ZNKSt3__112basic_stringIcNS_11char_traitsIcEENS_9allocatorIcEEE5emptyB8ne180100Ev
FNL:4,1268
FNA:4,6,_ZNSt3__112basic_stringIcNS_11char_traitsIcEENS_9allocatorIcEEE6appendB8ne180100ERKS5_
FNL:5,1595
FNA:5,612,_ZNKSt3__112basic_stringIcNS_11char_traitsIcEENS_9allocatorIcEEE5c_strB8ne180100Ev
FNL:6,1596
FNA:6,221632,_ZNKSt3__112basic_stringIcNS_11char_traitsIcEENS_9allocatorIcEEE4dataB8ne180100Ev
FNL:7,1600
FNA:7,0,_ZNSt3__112basic_stringIcNS_11char_traitsIcEENS_9allocatorIcEEE4dataB8ne180100Ev
FNL:8,1605
FNA:8,12,_ZNKSt3__112basic_stringIcNS_11char_traitsIcEENS_9allocatorIcEEE13get_allocatorB8ne180100Ev
FNL:9,1769
FNA:9,607416,_ZNKSt3__112basic_stringIcNS_11char_traitsIcEENS_9allocatorIcEEE9__is_longB8ne180100Ev
FNL:10,1776
FNA:10,0,_ZNSt3__112basic_stringIcNS_11char_traitsIcEENS_9allocatorIcEEE16__begin_lifetimeB8ne180100EPcm
FNL:11,1788
FNA:11,12,_ZNSt3__112basic_stringIcNS_11char_traitsIcEENS_9allocatorIcEEE13__fits_in_ssoB8ne180100Em
FNL:12,1826
FNA:12,1020,_ZNSt3__112basic_stringIcNS_11char_traitsIcEENS_9allocatorIcEEE7__allocB8ne180100Ev
FNL:13,1827
FNA:13,24,_ZNKSt3__112basic_stringIcNS_11char_traitsIcEENS_9allocatorIcEEE7__allocB8ne180100Ev
FNL:14,1830
FNA:14,522,_ZNSt3__112basic_stringIcNS_11char_traitsIcEENS_9allocatorIcEEE16__set_short_sizeB8ne180100Em
FNL:15,1837
FNA:15,267552,_ZNKSt3__112basic_stringIcNS_11char_traitsIcEENS_9allocatorIcEEE16__get_short_sizeB8ne180100Ev
FNL:16,1842
FNA:16,0,_ZNSt3__112basic_stringIcNS_11char_traitsIcEENS_9allocatorIcEEE15__set_long_sizeB8ne180100Em
FNL:17,1845
FNA:17,1066,_ZNKSt3__112basic_stringIcNS_11char_traitsIcEENS_9allocatorIcEEE15__get_long_sizeB8ne180100Ev
FNL:18,1855
FNA:18,0,_ZNSt3__112basic_stringIcNS_11char_traitsIcEENS_9allocatorIcEEE14__set_long_capB8ne180100Em
FNL:19,1860
FNA:19,0,_ZNKSt3__112basic_stringIcNS_11char_traitsIcEENS_9allocatorIcEEE14__get_long_capB8ne180100Ev
FNL:20,1864
FNA:20,0,_ZNSt3__112basic_stringIcNS_11char_traitsIcEENS_9allocatorIcEEE18__set_long_pointerB8ne180100EPc
FNL:21,1867
FNA:21,0,_ZNSt3__112basic_stringIcNS_11char_traitsIcEENS_9allocatorIcEEE18__get_long_pointerB8ne180100Ev
FNL:22,1870
FNA:22,544,_ZNKSt3__112basic_stringIcNS_11char_traitsIcEENS_9allocatorIcEEE18__get_long_pointerB8ne180100Ev
FNL:23,1873
FNA:23,522,_ZNSt3__112basic_stringIcNS_11char_traitsIcEENS_9allocatorIcEEE19__get_short_pointerB8ne180100Ev
FNL:24,1876
FNA:24,221088,_ZNKSt3__112basic_stringIcNS_11char_traitsIcEENS_9allocatorIcEEE19__get_short_pointerB8ne180100Ev
FNL:25,1879
FNA:25,12,_ZNSt3__112basic_stringIcNS_11char_traitsIcEENS_9allocatorIcEEE13__get_pointerB8ne180100Ev
FNL:26,1882
FNA:26,221632,_ZNKSt3__112basic_stringIcNS_11char_traitsIcEENS_9allocatorIcEEE13__get_pointerB8ne180100Ev
FNL:27,1904
FNA:27,11666,_ZNKSt3__112basic_stringIcNS_11char_traitsIcEENS_9allocatorIcEEE14__annotate_newB8ne180100Em
FNL:28,1912
FNA:28,5456,_ZNKSt3__112basic_stringIcNS_11char_traitsIcEENS_9allocatorIcEEE17__annotate_deleteB8ne180100Ev
FNL:29,1927
FNA:29,0,_ZNKSt3__112basic_stringIcNS_11char_traitsIcEENS_9allocatorIcEEE17__annotate_shrinkB8ne180100Em
FNL:30,1936
FNA:30,0,_ZNSt3__112basic_stringIcNS_11char_traitsIcEENS_9allocatorIcEEE10__align_itB8ne180100ILm8EEEmm
FNL:31,1942
FNA:31,0,_ZNSt3__112basic_stringIcNS_11char_traitsIcEENS_9allocatorIcEEE11__recommendB8ne180100Em
FNL:32,2064
FNA:32,510,_ZNSt3__112basic_stringIcNS_11char_traitsIcEENS_9allocatorIcEEE19__move_assign_allocB8ne180100ERS5_
FNL:33,2071
FNA:33,510,_ZNSt3__112basic_stringIcNS_11char_traitsIcEENS_9allocatorIcEEE19__move_assign_allocB8ne180100ERS5_NS_17integral_constantIbLb1EEE
FNL:34,2112
FNA:34,0,_ZNKSt3__112basic_stringIcNS_11char_traitsIcEENS_9allocatorIcEEE20__throw_length_errorB8ne180100Ev
FNL:35,2562
FNA:35,510,_ZNSt3__112basic_stringIcNS_11char_traitsIcEENS_9allocatorIcEEE13__move_assignB8ne180100ERS5_NS_17integral_constantIbLb1EEE
FNL:36,3361
FNA:36,10,_ZNKSt3__112basic_stringIcNS_11char_traitsIcEENS_9allocatorIcEEE4findB8ne180100EPKcm
FNL:37,3703
FNA:37,128662,_ZNSt3__1eqB8ne180100INS_9allocatorIcEEEEbRKNS_12basic_stringIcNS_11char_traitsIcEET_EES9_
FNL:38,3733
FNA:38,4,_ZNSt3__1eqB8ne180100IcNS_11char_traitsIcEENS_9allocatorIcEEEEbRKNS_12basic_stringIT_T0_T1_EEPKS6_
FNL:39,3913
FNA:39,12,_ZNSt3__1plB8ne180100IcNS_11char_traitsIcEENS_9allocatorIcEEEENS_12basic_stringIT_T0_T1_EERKS9_PKS6_
FNL:40,3958
FNA:40,6,_ZNSt3__1plB8ne180100IcNS_11char_traitsIcEENS_9allocatorIcEEEENS_12basic_stringIT_T0_T1_EEOS9_SA_
FNL:41,3964
FNA:41,4940,_ZNSt3__1plB8ne180100IcNS_11char_traitsIcEENS_9allocatorIcEEEENS_12basic_stringIT_T0_T1_EEPKS6_OS9_
FNL:42,4048
FNA:42,5166,_ZNKSt3__113__string_hashIcNS_9allocatorIcEEEclB8ne180100ERKNS_12basic_stringIcNS_11char_traitsIcEES2_EE
FNL:43,845
FNA:43,12,_ZNSt3__112basic_stringIcNS_11char_traitsIcEENS_9allocatorIcEEEC1B8ne180100ENS_24__uninitialized_size_tagEmRKS4_
FNA:43,12,_ZNSt3__112basic_stringIcNS_11char_traitsIcEENS_9allocatorIcEEEC2B8ne180100ENS_24__uninitialized_size_tagEmRKS4_
FNL:44,880
FNA:44,1048,_ZNSt3__112basic_stringIcNS_11char_traitsIcEENS_9allocatorIcEEEC1B8ne180100Ev
FNA:44,1048,_ZNSt3__112basic_stringIcNS_11char_traitsIcEENS_9allocatorIcEEEC2B8ne180100Ev
FNL:45,916
FNA:45,5150,_ZNSt3__112basic_stringIcNS_11char_traitsIcEENS_9allocatorIcEEEC1B8ne180100EOS5_
FNA:45,5150,_ZNSt3__112basic_stringIcNS_11char_traitsIcEENS_9allocatorIcEEEC2B8ne180100EOS5_
FNL:46,925
FNA:46,5150,_ZZNSt3__112basic_stringIcNS_11char_traitsIcEENS_9allocatorIcEEEC1B8ne180100EOS5_ENKUlRS5_E_clES7_
FNL:47,951
FNA:47,642,_ZNSt3__112basic_stringIcNS_11char_traitsIcEENS_9allocatorIcEEEC1B8ne180100ILi0EEEPKc
FNA:47,642,_ZNSt3__112basic_stringIcNS_11char_traitsIcEENS_9allocatorIcEEEC2B8ne180100ILi0EEEPKc
FNL:48,968
FNA:48,0,_ZNSt3__112basic_stringIcNS_11char_traitsIcEENS_9allocatorIcEEEC1B8ne180100EPKcm
FNA:48,0,_ZNSt3__112basic_stringIcNS_11char_traitsIcEENS_9allocatorIcEEEC2B8ne180100EPKcm
FNL:49,981
FNA:49,0,_ZNSt3__112basic_stringIcNS_11char_traitsIcEENS_9allocatorIcEEEC1B8ne180100Emc
FNA:49,0,_ZNSt3__112basic_stringIcNS_11char_traitsIcEENS_9allocatorIcEEEC2B8ne180100Emc
FNF:50
FNH:37
DA:845,24
DA:847,24
DA:848,12
DA:849,0
DA:850,12
DA:851,12
DA:852,12
DA:853,12
DA:854,0
DA:855,0
DA:856,0
DA:857,0
DA:858,0
DA:859,0
DA:861,12
DA:862,24
DA:880,2096
DA:882,2096
DA:883,1048
DA:884,2096
DA:916,10300
DA:925,15450
DA:926,5150
DA:927,5150
DA:928,5150
DA:929,4946
DA:930,10300
DA:951,1284
DA:952,1284
DA:954,642
DA:955,1284
DA:968,0
DA:969,0
DA:971,0
DA:972,0
DA:981,0
DA:982,0
DA:983,0
DA:984,0
DA:1125,510
DA:1127,510
DA:1128,510
DA:1176,268618
DA:1177,268618
DA:1181,12
DA:1182,12
DA:1183,12
DA:1184,0
DA:1186,12
DA:1187,12
DA:1189,12
DA:1216,16
DA:1217,16
DA:1268,6
DA:1269,6
DA:1595,612
DA:1596,221632
DA:1597,221632
DA:1600,0
DA:1601,0
DA:1605,12
DA:1606,12
DA:1769,607416
DA:1773,607416
DA:1776,0
DA:1786,0
DA:1788,12
DA:1826,1020
DA:1827,24
DA:1830,522
DA:1832,522
DA:1833,522
DA:1834,522
DA:1837,267552
DA:1839,267552
DA:1842,0
DA:1843,0
DA:1844,0
DA:1845,1066
DA:1846,1066
DA:1855,0
DA:1856,0
DA:1857,0
DA:1858,0
DA:1860,0
DA:1861,0
DA:1864,0
DA:1865,0
DA:1866,0
DA:1867,0
DA:1868,0
DA:1870,544
DA:1871,544
DA:1873,522
DA:1874,522
DA:1876,221088
DA:1877,221088
DA:1879,12
DA:1880,12
DA:1882,221632
DA:1883,221632
DA:1904,11666
DA:1910,11666
DA:1912,5456
DA:1917,5456
DA:1927,0
DA:1933,0
DA:1936,0
DA:1937,0
DA:1942,0
DA:1943,0
DA:1944,0
DA:1946,0
DA:1947,0
DA:1948,0
DA:1949,0
DA:1950,0
DA:1951,0
DA:2064,510
DA:2067,510
DA:2068,510
DA:2069,510
DA:2071,510
DA:2073,510
DA:2074,510
DA:2112,0
DA:2113,0
DA:2562,510
DA:2569,510
DA:2570,510
DA:2571,0
DA:2579,0
DA:2580,510
DA:2581,510
DA:2583,510
DA:2584,510
DA:2585,510
DA:2586,510
DA:2588,510
DA:2589,0
DA:2593,510
DA:2602,510
DA:2604,0
DA:2605,510
DA:3361,10
DA:3363,10
DA:3364,10
DA:3703,128662
DA:3705,128662
DA:3706,128662
DA:3707,23338
DA:3708,105324
DA:3709,105324
DA:3710,105324
DA:3711,0
DA:3712,440170
DA:3713,437762
DA:3714,102916
DA:3715,2408
DA:3716,128662
DA:3733,4
DA:3739,4
DA:3740,4
DA:3741,0
DA:3742,4
DA:3744,4
DA:3913,12
DA:3915,12
DA:3916,12
DA:3917,24
DA:3918,12
DA:3919,12
DA:3920,12
DA:3921,12
DA:3922,12
DA:3923,12
DA:3924,12
DA:3925,12
DA:3958,6
DA:3959,6
DA:3964,4940
DA:3965,4940
DA:4048,5166
DA:4049,5166
LF:184
LH:129
end_of_record
TN:
SF:/Applications/Xcode.app/Contents/Developer/Platforms/MacOSX.platform/Developer/SDKs/MacOSX.sdk/usr/include/c++/v1/typeinfo
FNL:0,229
FNA:0,0,_ZNSt27__type_info_implementations30__non_unique_arm_rtti_bit_impl21__type_name_to_stringB8ne180100Em
FNL:1,241
FNA:1,0,_ZNSt27__type_info_implementations30__non_unique_arm_rtti_bit_impl4__eqB8ne180100Emm
FNL:2,262
FNA:2,0,_ZNSt27__type_info_implementations30__non_unique_arm_rtti_bit_impl21__is_type_name_uniqueB8ne180100Em
FNL:3,314
FNA:3,0,_ZNKSt9type_infoeqB8ne180100ERKS_
FNF:4
FNH:0
DA:229,0
DA:230,0
DA:241,0
DA:242,0
DA:243,0
DA:244,0
DA:247,0
DA:248,0
DA:249,0
DA:262,0
DA:263,0
DA:314,0
DA:320,0
LF:13
LH:0
end_of_record
TN:
SF:/Applications/Xcode.app/Contents/Developer/Platforms/MacOSX.platform/Developer/SDKs/MacOSX.sdk/usr/include/c++/v1/vector
FNL:0,1030
FNA:0,22,_ZNKSt3__16vectorIP8HashNodeINS_12basic_stringIcNS_11char_traitsIcEENS_9allocatorIcEEEEiENS5_IS9_EEE8max_sizeEv
FNA:0,2,_ZNKSt3__16vectorIP8HashNodeIiNS_12basic_stringIcNS_11char_traitsIcEENS_9allocatorIcEEEEENS5_IS9_EEE8max_sizeEv
FNA:0,4,_ZNKSt3__16vectorIP8HashNodeIiiENS_9allocatorIS3_EEE8max_sizeEv
FNA:0,16,_ZNKSt3__16vectorIiNS_9allocatorIiEEE8max_sizeEv
FNL:1,1037
FNA:1,22,_ZNKSt3__16vectorIP8HashNodeINS_12basic_stringIcNS_11char_traitsIcEENS_9allocatorIcEEEEiENS5_IS9_EEE11__recommendB8ne180100Em
FNA:1,2,_ZNKSt3__16vectorIP8HashNodeIiNS_12basic_stringIcNS_11char_traitsIcEENS_9allocatorIcEEEEENS5_IS9_EEE11__recommendB8ne180100Em
FNA:1,4,_ZNKSt3__16vectorIP8HashNodeIiiENS_9allocatorIS3_EEE11__recommendB8ne180100Em
FNA:1,14,_ZNKSt3__16vectorIiNS_9allocatorIiEEE11__recommendB8ne180100Em
FNL:2,1069
FNA:2,0,_ZNSt3__16vectorIP8HashNodeINS_12basic_stringIcNS_11char_traitsIcEENS_9allocatorIcEEEEiENS5_IS9_EEE18__construct_at_endEmRKS9_
FNA:2,0,_ZNSt3__16vectorIP8HashNodeIiNS_12basic_stringIcNS_11char_traitsIcEENS_9allocatorIcEEEEENS5_IS9_EEE18__construct_at_endEmRKS9_
FNA:2,0,_ZNSt3__16vectorIP8HashNodeIiiENS_9allocatorIS3_EEE18__construct_at_endEmRKS3_
FNL:3,1080
FNA:3,2,_ZNSt3__16vectorIiNS_9allocatorIiEEE18__construct_at_endIPKiS6_EEvT_T0_m
FNL:4,1106
FNA:4,22,_ZNSt3__16vectorIP8HashNodeINS_12basic_stringIcNS_11char_traitsIcEENS_9allocatorIcEEEEiENS5_IS9_EEE8__appendEmRKS9_
FNA:4,2,_ZNSt3__16vectorIP8HashNodeIiNS_12basic_stringIcNS_11char_traitsIcEENS_9allocatorIcEEEEENS5_IS9_EEE8__appendEmRKS9_
FNA:4,4,_ZNSt3__16vectorIP8HashNodeIiiENS_9allocatorIS3_EEE8__appendEmRKS3_
FNL:5,1240
FNA:5,2,_ZNSt3__16vectorIiNS_9allocatorIiEEEC1B8ne180100ESt16initializer_listIiE
FNA:5,2,_ZNSt3__16vectorIiNS_9allocatorIiEEEC2B8ne180100ESt16initializer_listIiE
FNL:6,1368
FNA:6,6,_ZNSt3__16vectorIiNS_9allocatorIiEEE5beginB8ne180100Ev
FNL:7,1380
FNA:7,6,_ZNSt3__16vectorIiNS_9allocatorIiEEE3endB8ne180100Ev
FNL:8,1392
FNA:8,8742,_ZNSt3__16vectorIP8HashNodeINS_12basic_stringIcNS_11char_traitsIcEENS_9allocatorIcEEEEiENS5_IS9_EEEixB8ne180100Em
FNA:8,50,_ZNSt3__16vectorIP8HashNodeIiNS_12basic_stringIcNS_11char_traitsIcEENS_9allocatorIcEEEEENS5_IS9_EEEixB8ne180100Em
FNA:8,684,_ZNSt3__16vectorIP8HashNodeIiiENS_9allocatorIS3_EEEixB8ne180100Em
FNL:9,1399
FNA:9,2242,_ZNKSt3__16vectorIP8HashNodeINS_12basic_stringIcNS_11char_traitsIcEENS_9allocatorIcEEEEiENS5_IS9_EEEixB8ne180100Em
FNA:9,4,_ZNKSt3__16vectorIP8HashNodeIiNS_12basic_stringIcNS_11char_traitsIcEENS_9allocatorIcEEEEENS5_IS9_EEEixB8ne180100Em
FNA:9,220,_ZNKSt3__16vectorIP8HashNodeIiiENS_9allocatorIS3_EEEixB8ne180100Em
FNL:10,1449
FNA:10,14,_ZNSt3__16vectorIiNS_9allocatorIiEEE21__push_back_slow_pathIRKiEEPiOT_
FNL:11,1461
FNA:11,100,_ZNSt3__16vectorIiNS_9allocatorIiEEE9push_backB8ne180100ERKi
FNL:12,1756
FNA:12,22,_ZNSt3__16vectorIP8HashNodeINS_12basic_stringIcNS_11char_traitsIcEENS_9allocatorIcEEEEiENS5_IS9_EEE6resizeEmRKS9_
FNA:12,2,_ZNSt3__16vectorIP8HashNodeIiNS_12basic_stringIcNS_11char_traitsIcEENS_9allocatorIcEEEEENS5_IS9_EEE6resizeEmRKS9_
FNA:12,4,_ZNSt3__16vectorIP8HashNodeIiiENS_9allocatorIS3_EEE6resizeEmRKS3_
FNL:13,415
FNA:13,22,_ZNSt3__16vectorIP8HashNodeINS_12basic_stringIcNS_11char_traitsIcEENS_9allocatorIcEEEEiENS5_IS9_EEEC1B8ne180100Ev
FNA:13,22,_ZNSt3__16vectorIP8HashNodeINS_12basic_stringIcNS_11char_traitsIcEENS_9allocatorIcEEEEiENS5_IS9_EEEC2B8ne180100Ev
FNA:13,2,_ZNSt3__16vectorIP8HashNodeIiNS_12basic_stringIcNS_11char_traitsIcEENS_9allocatorIcEEEEENS5_IS9_EEEC1B8ne180100Ev
FNA:13,2,_ZNSt3__16vectorIP8HashNodeIiNS_12basic_stringIcNS_11char_traitsIcEENS_9allocatorIcEEEEENS5_IS9_EEEC2B8ne180100Ev
FNA:13,4,_ZNSt3__16vectorIP8HashNodeIiiENS_9allocatorIS3_EEEC1B8ne180100Ev
FNA:13,4,_ZNSt3__16vectorIP8HashNodeIiiENS_9allocatorIS3_EEEC2B8ne180100Ev
FNA:13,2,_ZNSt3__16vectorIiNS_9allocatorIiEEEC1B8ne180100Ev
FNA:13,2,_ZNSt3__16vectorIiNS_9allocatorIiEEEC2B8ne180100Ev
FNL:14,486
FNA:14,22,_ZNSt3__16vectorIP8HashNodeINS_12basic_stringIcNS_11char_traitsIcEENS_9allocatorIcEEEEiENS5_IS9_EEE16__destroy_vectorC1B8ne180100ERSB_
FNA:14,22,_ZNSt3__16vectorIP8HashNodeINS_12basic_stringIcNS_11char_traitsIcEENS_9allocatorIcEEEEiENS5_IS9_EEE16__destroy_vectorC2B8ne180100ERSB_
FNA:14,2,_ZNSt3__16vectorIP8HashNodeIiNS_12basic_stringIcNS_11char_traitsIcEENS_9allocatorIcEEEEENS5_IS9_EEE16__destroy_vectorC1B8ne180100ERSB_
FNA:14,2,_ZNSt3__16vectorIP8HashNodeIiNS_12basic_stringIcNS_11char_traitsIcEENS_9allocatorIcEEEEENS5_IS9_EEE16__destroy_vectorC2B8ne180100ERSB_
FNA:14,4,_ZNSt3__16vectorIP8HashNodeIiiENS_9allocatorIS3_EEE16__destroy_vectorC1B8ne180100ERS6_
FNA:14,4,_ZNSt3__16vectorIP8HashNodeIiiENS_9allocatorIS3_EEE16__destroy_vectorC2B8ne180100ERS6_
FNA:14,6,_ZNSt3__16vectorIiNS_9allocatorIiEEE16__destroy_vectorC1B8ne180100ERS3_
FNA:14,6,_ZNSt3__16vectorIiNS_9allocatorIiEEE16__destroy_vectorC2B8ne180100ERS3_
FNL:15,488
FNA:15,22,_ZNSt3__16vectorIP8HashNodeINS_12basic_stringIcNS_11char_traitsIcEENS_9allocatorIcEEEEiENS5_IS9_EEE16__destroy_vectorclB8ne180100Ev
FNA:15,2,_ZNSt3__16vectorIP8HashNodeIiNS_12basic_stringIcNS_11char_traitsIcEENS_9allocatorIcEEEEENS5_IS9_EEE16__destroy_vectorclB8ne180100Ev
FNA:15,4,_ZNSt3__16vectorIP8HashNodeIiiENS_9allocatorIS3_EEE16__destroy_vectorclB8ne180100Ev
FNA:15,4,_ZNSt3__16vectorIiNS_9allocatorIiEEE16__destroy_vectorclB8ne180100Ev
FNL:16,501
FNA:16,22,_ZNSt3__16vectorIP8HashNodeINS_12basic_stringIcNS_11char_traitsIcEENS_9allocatorIcEEEEiENS5_IS9_EEED1B8ne180100Ev
FNA:16,22,_ZNSt3__16vectorIP8HashNodeINS_12basic_stringIcNS_11char_traitsIcEENS_9allocatorIcEEEEiENS5_IS9_EEED2B8ne180100Ev
FNA:16,2,_ZNSt3__16vectorIP8HashNodeIiNS_12basic_stringIcNS_11char_traitsIcEENS_9allocatorIcEEEEENS5_IS9_EEED1B8ne180100Ev
FNA:16,2,_ZNSt3__16vectorIP8HashNodeIiNS_12basic_stringIcNS_11char_traitsIcEENS_9allocatorIcEEEEENS5_IS9_EEED2B8ne180100Ev
FNA:16,4,_ZNSt3__16vectorIP8HashNodeIiiENS_9allocatorIS3_EEED1B8ne180100Ev
FNA:16,4,_ZNSt3__16vectorIP8HashNodeIiiENS_9allocatorIS3_EEED2B8ne180100Ev
FNA:16,4,_ZNSt3__16vectorIiNS_9allocatorIiEEED1B8ne180100Ev
FNA:16,4,_ZNSt3__16vectorIiNS_9allocatorIiEEED2B8ne180100Ev
FNL:17,594
FNA:17,88,_ZNKSt3__16vectorIP8HashNodeINS_12basic_stringIcNS_11char_traitsIcEENS_9allocatorIcEEEEiENS5_IS9_EEE4sizeB8ne180100Ev
FNA:17,8,_ZNKSt3__16vectorIP8HashNodeIiNS_12basic_stringIcNS_11char_traitsIcEENS_9allocatorIcEEEEENS5_IS9_EEE4sizeB8ne180100Ev
FNA:17,16,_ZNKSt3__16vectorIP8HashNodeIiiENS_9allocatorIS3_EEE4sizeB8ne180100Ev
FNA:17,42,_ZNKSt3__16vectorIiNS_9allocatorIiEEE4sizeB8ne180100Ev
FNL:18,597
FNA:18,44,_ZNKSt3__16vectorIP8HashNodeINS_12basic_stringIcNS_11char_traitsIcEENS_9allocatorIcEEEEiENS5_IS9_EEE8capacityB8ne180100Ev
FNA:18,4,_ZNKSt3__16vectorIP8HashNodeIiNS_12basic_stringIcNS_11char_traitsIcEENS_9allocatorIcEEEEENS5_IS9_EEE8capacityB8ne180100Ev
FNA:18,8,_ZNKSt3__16vectorIP8HashNodeIiiENS_9allocatorIS3_EEE8capacityB8ne180100Ev
FNA:18,18,_ZNKSt3__16vectorIiNS_9allocatorIiEEE8capacityB8ne180100Ev
FNL:19,738
FNA:19,2,_ZNSt3__16vectorIiNS_9allocatorIiEEE11__vallocateB8ne180100Em
FNL:20,798
FNA:20,12,_ZNSt3__16vectorIiNS_9allocatorIiEEE11__make_iterB8ne180100EPi
FNL:21,814
FNA:21,0,_ZNSt3__16vectorIP8HashNodeINS_12basic_stringIcNS_11char_traitsIcEENS_9allocatorIcEEEEiENS5_IS9_EEE17__destruct_at_endB8ne180100EPS9_
FNA:21,0,_ZNSt3__16vectorIP8HashNodeIiNS_12basic_stringIcNS_11char_traitsIcEENS_9allocatorIcEEEEENS5_IS9_EEE17__destruct_at_endB8ne180100EPS9_
FNA:21,0,_ZNSt3__16vectorIP8HashNodeIiiENS_9allocatorIS3_EEE17__destruct_at_endB8ne180100EPS3_
FNL:22,847
FNA:22,22,_ZNKSt3__16vectorIP8HashNodeINS_12basic_stringIcNS_11char_traitsIcEENS_9allocatorIcEEEEiENS5_IS9_EEE14__annotate_newB8ne180100Em
FNA:22,2,_ZNKSt3__16vectorIP8HashNodeIiNS_12basic_stringIcNS_11char_traitsIcEENS_9allocatorIcEEEEENS5_IS9_EEE14__annotate_newB8ne180100Em
FNA:22,4,_ZNKSt3__16vectorIP8HashNodeIiiENS_9allocatorIS3_EEE14__annotate_newB8ne180100Em
FNA:22,16,_ZNKSt3__16vectorIiNS_9allocatorIiEEE14__annotate_newB8ne180100Em
FNL:23,854
FNA:23,44,_ZNKSt3__16vectorIP8HashNodeINS_12basic_stringIcNS_11char_traitsIcEENS_9allocatorIcEEEEiENS5_IS9_EEE17__annotate_deleteB8ne180100Ev
FNA:23,4,_ZNKSt3__16vectorIP8HashNodeIiNS_12basic_stringIcNS_11char_traitsIcEENS_9allocatorIcEEEEENS5_IS9_EEE17__annotate_deleteB8ne180100Ev
FNA:23,8,_ZNKSt3__16vectorIP8HashNodeIiiENS_9allocatorIS3_EEE17__annotate_deleteB8ne180100Ev
FNA:23,18,_ZNKSt3__16vectorIiNS_9allocatorIiEEE17__annotate_deleteB8ne180100Ev
FNL:24,867
FNA:24,0,_ZNKSt3__16vectorIP8HashNodeINS_12basic_stringIcNS_11char_traitsIcEENS_9allocatorIcEEEEiENS5_IS9_EEE17__annotate_shrinkB8ne180100Em
FNA:24,0,_ZNKSt3__16vectorIP8HashNodeIiNS_12basic_stringIcNS_11char_traitsIcEENS_9allocatorIcEEEEENS5_IS9_EEE17__annotate_shrinkB8ne180100Em
FNA:24,0,_ZNKSt3__16vectorIP8HashNodeIiiENS_9allocatorIS3_EEE17__annotate_shrinkB8ne180100Em
FNL:25,875
FNA:25,0,_ZNSt3__16vectorIP8HashNodeINS_12basic_stringIcNS_11char_traitsIcEENS_9allocatorIcEEEEiENS5_IS9_EEE21_ConstructTransactionC1B8ne180100ERSB_m
FNA:25,0,_ZNSt3__16vectorIP8HashNodeINS_12basic_stringIcNS_11char_traitsIcEENS_9allocatorIcEEEEiENS5_IS9_EEE21_ConstructTransactionC2B8ne180100ERSB_m
FNA:25,0,_ZNSt3__16vectorIP8HashNodeIiNS_12basic_stringIcNS_11char_traitsIcEENS_9allocatorIcEEEEENS5_IS9_EEE21_ConstructTransactionC1B8ne180100ERSB_m
FNA:25,0,_ZNSt3__16vectorIP8HashNodeIiNS_12basic_stringIcNS_11char_traitsIcEENS_9allocatorIcEEEEENS5_IS9_EEE21_ConstructTransactionC2B8ne180100ERSB_m
FNA:25,0,_ZNSt3__16vectorIP8HashNodeIiiENS_9allocatorIS3_EEE21_ConstructTransactionC1B8ne180100ERS6_m
FNA:25,0,_ZNSt3__16vectorIP8HashNodeIiiENS_9allocatorIS3_EEE21_ConstructTransactionC2B8ne180100ERS6_m
FNA:25,88,_ZNSt3__16vectorIiNS_9allocatorIiEEE21_ConstructTransactionC1B8ne180100ERS3_m
FNA:25,88,_ZNSt3__16vectorIiNS_9allocatorIiEEE21_ConstructTransactionC2B8ne180100ERS3_m
FNL:26,881
FNA:26,0,_ZNSt3__16vectorIP8HashNodeINS_12basic_stringIcNS_11char_traitsIcEENS_9allocatorIcEEEEiENS5_IS9_EEE21_ConstructTransactionD1B8ne180100Ev
FNA:26,0,_ZNSt3__16vectorIP8HashNodeINS_12basic_stringIcNS_11char_traitsIcEENS_9allocatorIcEEEEiENS5_IS9_EEE21_ConstructTransactionD2B8ne180100Ev
FNA:26,0,_ZNSt3__16vectorIP8HashNodeIiNS_12basic_stringIcNS_11char_traitsIcEENS_9allocatorIcEEEEENS5_IS9_EEE21_ConstructTransactionD1B8ne180100Ev
FNA:26,0,_ZNSt3__16vectorIP8HashNodeIiNS_12basic_stringIcNS_11char_traitsIcEENS_9allocatorIcEEEEENS5_IS9_EEE21_ConstructTransactionD2B8ne180100Ev
FNA:26,0,_ZNSt3__16vectorIP8HashNodeIiiENS_9allocatorIS3_EEE21_ConstructTransactionD1B8ne180100Ev
FNA:26,0,_ZNSt3__16vectorIP8HashNodeIiiENS_9allocatorIS3_EEE21_ConstructTransactionD2B8ne180100Ev
FNA:26,88,_ZNSt3__16vectorIiNS_9allocatorIiEEE21_ConstructTransactionD1B8ne180100Ev
FNA:26,88,_ZNSt3__16vectorIiNS_9allocatorIiEEE21_ConstructTransactionD2B8ne180100Ev
FNL:27,900
FNA:27,86,_ZNSt3__16vectorIiNS_9allocatorIiEEE22__construct_one_at_endB8ne180100IJRKiEEEvDpOT_
FNL:28,906
FNA:28,546,_ZNSt3__16vectorIP8HashNodeINS_12basic_stringIcNS_11char_traitsIcEENS_9allocatorIcEEEEiENS5_IS9_EEE7__allocB8ne180100Ev
FNA:28,38,_ZNSt3__16vectorIP8HashNodeIiNS_12basic_stringIcNS_11char_traitsIcEENS_9allocatorIcEEEEENS5_IS9_EEE7__allocB8ne180100Ev
FNA:28,36,_ZNSt3__16vectorIP8HashNodeIiiENS_9allocatorIS3_EEE7__allocB8ne180100Ev
FNA:28,244,_ZNSt3__16vectorIiNS_9allocatorIiEEE7__allocB8ne180100Ev
FNL:29,909
FNA:29,22,_ZNKSt3__16vectorIP8HashNodeINS_12basic_stringIcNS_11char_traitsIcEENS_9allocatorIcEEEEiENS5_IS9_EEE7__allocB8ne180100Ev
FNA:29,2,_ZNKSt3__16vectorIP8HashNodeIiNS_12basic_stringIcNS_11char_traitsIcEENS_9allocatorIcEEEEENS5_IS9_EEE7__allocB8ne180100Ev
FNA:29,4,_ZNKSt3__16vectorIP8HashNodeIiiENS_9allocatorIS3_EEE7__allocB8ne180100Ev
FNA:29,16,_ZNKSt3__16vectorIiNS_9allocatorIiEEE7__allocB8ne180100Ev
FNL:30,912
FNA:30,44,_ZNSt3__16vectorIP8HashNodeINS_12basic_stringIcNS_11char_traitsIcEENS_9allocatorIcEEEEiENS5_IS9_EEE9__end_capB8ne180100Ev
FNA:30,4,_ZNSt3__16vectorIP8HashNodeIiNS_12basic_stringIcNS_11char_traitsIcEENS_9allocatorIcEEEEENS5_IS9_EEE9__end_capB8ne180100Ev
FNA:30,8,_ZNSt3__16vectorIP8HashNodeIiiENS_9allocatorIS3_EEE9__end_capB8ne180100Ev
FNA:30,116,_ZNSt3__16vectorIiNS_9allocatorIiEEE9__end_capB8ne180100Ev
FNL:31,915
FNA:31,44,_ZNKSt3__16vectorIP8HashNodeINS_12basic_stringIcNS_11char_traitsIcEENS_9allocatorIcEEEEiENS5_IS9_EEE9__end_capB8ne180100Ev
FNA:31,4,_ZNKSt3__16vectorIP8HashNodeIiNS_12basic_stringIcNS_11char_traitsIcEENS_9allocatorIcEEEEENS5_IS9_EEE9__end_capB8ne180100Ev
FNA:31,8,_ZNKSt3__16vectorIP8HashNodeIiiENS_9allocatorIS3_EEE9__end_capB8ne180100Ev
FNA:31,18,_ZNKSt3__16vectorIiNS_9allocatorIiEEE9__end_capB8ne180100Ev
FNL:32,919
FNA:32,22,_ZNSt3__16vectorIP8HashNodeINS_12basic_stringIcNS_11char_traitsIcEENS_9allocatorIcEEEEiENS5_IS9_EEE7__clearB8ne180100Ev
FNA:32,2,_ZNSt3__16vectorIP8HashNodeIiNS_12basic_stringIcNS_11char_traitsIcEENS_9allocatorIcEEEEENS5_IS9_EEE7__clearB8ne180100Ev
FNA:32,4,_ZNSt3__16vectorIP8HashNodeIiiENS_9allocatorIS3_EEE7__clearB8ne180100Ev
FNA:32,4,_ZNSt3__16vectorIiNS_9allocatorIiEEE7__clearB8ne180100Ev
FNL:33,923
FNA:33,22,_ZNSt3__16vectorIP8HashNodeINS_12basic_stringIcNS_11char_traitsIcEENS_9allocatorIcEEEEiENS5_IS9_EEE22__base_destruct_at_endB8ne180100EPS9_
FNA:33,2,_ZNSt3__16vectorIP8HashNodeIiNS_12basic_stringIcNS_11char_traitsIcEENS_9allocatorIcEEEEENS5_IS9_EEE22__base_destruct_at_endB8ne180100EPS9_
FNA:33,4,_ZNSt3__16vectorIP8HashNodeIiiENS_9allocatorIS3_EEE22__base_destruct_at_endB8ne180100EPS3_
FNA:33,4,_ZNSt3__16vectorIiNS_9allocatorIiEEE22__base_destruct_at_endB8ne180100EPi
FNL:34,940
FNA:34,0,_ZNKSt3__16vectorIP8HashNodeINS_12basic_stringIcNS_11char_traitsIcEENS_9allocatorIcEEEEiENS5_IS9_EEE20__throw_length_errorB8ne180100Ev
FNA:34,0,_ZNKSt3__16vectorIP8HashNodeIiNS_12basic_stringIcNS_11char_traitsIcEENS_9allocatorIcEEEEENS5_IS9_EEE20__throw_length_errorB8ne180100Ev
FNA:34,0,_ZNKSt3__16vectorIP8HashNodeIiiENS_9allocatorIS3_EEE20__throw_length_errorB8ne180100Ev
FNA:34,0,_ZNKSt3__16vectorIiNS_9allocatorIiEEE20__throw_length_errorB8ne180100Ev
FNL:35,987
FNA:35,22,_ZNSt3__16vectorIP8HashNodeINS_12basic_stringIcNS_11char_traitsIcEENS_9allocatorIcEEEEiENS5_IS9_EEE26__swap_out_circular_bufferERNS_14__split_bufferIS9_RSA_EE
FNA:35,2,_ZNSt3__16vectorIP8HashNodeIiNS_12basic_stringIcNS_11char_traitsIcEENS_9allocatorIcEEEEENS5_IS9_EEE26__swap_out_circular_bufferERNS_14__split_bufferIS9_RSA_EE
FNA:35,4,_ZNSt3__16vectorIP8HashNodeIiiENS_9allocatorIS3_EEE26__swap_out_circular_bufferERNS_14__split_bufferIS3_RS5_EE
FNA:35,14,_ZNSt3__16vectorIiNS_9allocatorIiEEE26__swap_out_circular_bufferERNS_14__split_bufferIiRS2_EE
FNF:36
FNH:32
DA:415,60
DA:416,60
DA:486,68
DA:488,32
DA:489,32
DA:490,32
DA:491,32
DA:492,32
DA:493,32
DA:494,32
DA:501,64
DA:594,154
DA:595,154
DA:597,74
DA:598,74
DA:726,32
DA:727,32
DA:728,32
DA:729,32
DA:738,2
DA:739,2
DA:740,0
DA:741,2
DA:742,2
DA:743,2
DA:744,2
DA:745,2
DA:746,2
DA:798,12
DA:799,12
DA:814,0
DA:815,0
DA:816,0
DA:817,0
DA:818,0
DA:847,44
DA:852,44
DA:854,74
DA:858,74
DA:867,0
DA:872,0
DA:875,176
DA:876,176
DA:880,176
DA:881,176
DA:882,88
DA:888,176
DA:900,86
DA:901,86
DA:902,86
DA:903,86
DA:904,86
DA:906,864
DA:907,864
DA:909,44
DA:910,44
DA:912,172
DA:913,172
DA:915,74
DA:916,74
DA:919,32
DA:920,32
DA:921,32
DA:923,32
DA:924,32
DA:925,690
DA:926,658
DA:927,32
DA:928,32
DA:940,0
DA:987,42
DA:988,42
DA:990,84
DA:991,42
DA:992,42
DA:993,42
DA:994,42
DA:995,42
DA:996,42
DA:997,42
DA:998,42
DA:1030,44
DA:1031,44
DA:1037,42
DA:1038,42
DA:1039,42
DA:1040,0
DA:1041,42
DA:1042,42
DA:1043,0
DA:1044,42
DA:1045,42
DA:1069,0
DA:1070,0
DA:1071,0
DA:1072,0
DA:1073,0
DA:1074,0
DA:1075,0
DA:1080,2
DA:1081,2
DA:1082,2
DA:1083,2
DA:1106,28
DA:1107,28
DA:1108,0
DA:1110,28
DA:1111,28
DA:1112,28
DA:1113,28
DA:1114,28
DA:1115,28
DA:1240,4
DA:1241,2
DA:1242,2
DA:1243,2
DA:1244,2
DA:1245,2
DA:1246,2
DA:1247,4
DA:1368,6
DA:1369,6
DA:1380,6
DA:1381,6
DA:1392,9476
DA:1394,9476
DA:1399,2466
DA:1401,2466
DA:1449,14
DA:1450,14
DA:1451,14
DA:1453,14
DA:1454,14
DA:1455,14
DA:1456,14
DA:1457,14
DA:1461,100
DA:1462,100
DA:1463,100
DA:1464,86
DA:1465,86
DA:1466,86
DA:1467,14
DA:1469,100
DA:1470,100
DA:1756,28
DA:1757,28
DA:1758,28
DA:1759,28
DA:1760,0
DA:1761,0
DA:1762,28
LF:152
LH:131
end_of_record
TN:
SF:/Users/slavavikentev/Desktop// 3//lab-sem-3/3/include/array.hpp
FNL:0,107,119
FNA:0,12,_ZN5ArrayIiE6changeEii
FNL:1,122,134
FNA:1,64,_ZNK5ArrayIiE3getEi
FNL:2,137,151
FNA:2,4,_ZNK5ArrayIiE5printEv
FNL:3,14,32
FNA:3,66,_ZN5ArrayIiE6resizeEi
FNL:4,37,37
FNA:4,40,_ZN5ArrayIiEC1Ev
FNA:4,40,_ZN5ArrayIiEC2Ev
FNL:5,40,46
FNA:5,6,_ZN5ArrayIiEC1Ei
FNA:5,6,_ZN5ArrayIiEC2Ei
FNL:6,49,52
FNA:6,46,_ZN5ArrayIiED1Ev
FNA:6,46,_ZN5ArrayIiED2Ev
FNL:7,55,63
FNA:7,668,_ZN5ArrayIiE9push_backEi
FNL:8,66,82
FNA:8,16,_ZN5ArrayIiE3setEii
FNL:9,85,104
FNA:9,40,_ZN5ArrayIiE6removeEi
FNF:10
FNH:10
DA:14,66
DA:15,66
DA:16,0
DA:18,66
DA:19,66
DA:21,866
DA:22,800
DA:23,800
DA:24,800
DA:26,66
DA:27,66
DA:29,66
DA:30,66
DA:31,66
DA:32,66
DA:37,80
DA:40,12
DA:41,6
DA:42,4
DA:43,4
DA:44,4
DA:45,4
DA:46,12
DA:49,92
DA:50,46
DA:51,46
DA:52,92
DA:55,668
DA:56,668
DA:57,58
DA:58,58
DA:59,58
DA:60,668
DA:61,668
DA:62,668
DA:63,668
DA:66,16
DA:67,16
DA:68,4
DA:69,4
DA:72,12
DA:73,8
DA:74,8
DA:75,8
DA:77,12
DA:78,12
DA:80,12
DA:81,12
DA:82,16
DA:85,40
DA:86,40
DA:87,8
DA:88,8
DA:91,32
DA:92,0
DA:93,0
DA:96,32
DA:97,32
DA:99,32
DA:100,58
DA:101,44
DA:103,14
DA:104,40
DA:107,12
DA:108,12
DA:109,4
DA:110,4
DA:113,8
DA:114,0
DA:115,0
DA:118,8
DA:119,12
DA:122,64
DA:123,64
DA:124,32
DA:125,32
DA:128,32
DA:129,0
DA:130,0
DA:133,32
DA:134,64
DA:137,4
DA:138,4
DA:139,2
DA:140,2
DA:143,2
DA:144,6
DA:145,4
DA:146,4
DA:148,0
DA:149,4
DA:150,2
DA:151,4
LF:93
LH:85
end_of_record
TN:
SF:/Users/slavavikentev/Desktop// 3//lab-sem-3/3/include/doublylist.hpp
FNL:0,118,133
FNA:0,26,_ZN10DoublyListIiE9pop_frontEv
FNL:1,135,150
FNA:1,6,_ZN10DoublyListIiE8pop_backEv
FNL:2,14,14
FNA:2,594,_ZN10DoublyListIiE4NodeC1ERKi
FNA:2,594,_ZN10DoublyListIiE4NodeC2ERKi
FNL:3,152,173
FNA:3,46,_ZN10DoublyListIiE5eraseEPNS0_4NodeE
FNL:4,175,186
FNA:4,30,_ZN10DoublyListIiE12delete_valueERKi
FNL:5,188,202
FNA:5,6,_ZN10DoublyListIiE19delete_before_valueERKi
FNL:6,20,27
FNA:6,62,_ZNK10DoublyListIiE8containsEPNS0_4NodeE
FNL:7,204,218
FNA:7,6,_ZN10DoublyListIiE18delete_after_valueERKi
FNL:8,224,233
FNA:8,98,_ZNK10DoublyListIiE4findERKi
FNL:9,239,253
FNA:9,4,_ZNK10DoublyListIiE5printEv
FNL:10,259,259
FNA:10,26,_ZNK10DoublyListIiE8get_headEv
FNL:11,260,260
FNA:11,26,_ZNK10DoublyListIiE8get_tailEv
FNL:12,31,31
FNA:12,88,_ZN10DoublyListIiEC1Ev
FNA:12,88,_ZN10DoublyListIiEC2Ev
FNL:13,33,40
FNA:13,88,_ZN10DoublyListIiED1Ev
FNA:13,88,_ZN10DoublyListIiED2Ev
FNL:14,46,56
FNA:14,206,_ZN10DoublyListIiE10push_frontERKi
FNL:15,58,68
FNA:15,374,_ZN10DoublyListIiE9push_backERKi
FNL:16,70,90
FNA:16,12,_ZN10DoublyListIiE13insert_beforeEPNS0_4NodeERKi
FNL:17,92,112
FNA:17,10,_ZN10DoublyListIiE12insert_afterEPNS0_4NodeERKi
FNF:18
FNH:18
DA:14,1188
DA:20,62
DA:21,62
DA:22,108
DA:23,102
DA:24,46
DA:26,6
DA:27,62
DA:31,176
DA:33,176
DA:34,88
DA:35,612
DA:36,524
DA:37,524
DA:38,524
DA:40,176
DA:46,206
DA:47,206
DA:48,206
DA:50,206
DA:51,202
DA:53,4
DA:55,206
DA:56,206
DA:58,374
DA:59,374
DA:60,374
DA:62,374
DA:63,304
DA:65,70
DA:67,374
DA:68,374
DA:70,12
DA:71,12
DA:72,2
DA:73,2
DA:75,10
DA:76,2
DA:77,2
DA:80,8
DA:81,8
DA:82,8
DA:84,8
DA:85,6
DA:87,2
DA:89,8
DA:90,12
DA:92,10
DA:93,10
DA:94,2
DA:95,2
DA:97,8
DA:98,2
DA:99,2
DA:102,6
DA:103,6
DA:104,6
DA:106,6
DA:107,4
DA:109,2
DA:111,6
DA:112,10
DA:118,26
DA:119,26
DA:120,2
DA:121,2
DA:124,24
DA:125,24
DA:127,24
DA:128,20
DA:130,4
DA:132,24
DA:133,26
DA:135,6
DA:136,6
DA:137,2
DA:138,2
DA:141,4
DA:142,4
DA:144,4
DA:145,2
DA:147,2
DA:149,4
DA:150,6
DA:152,46
DA:153,46
DA:154,2
DA:155,2
DA:157,44
DA:158,2
DA:159,2
DA:162,42
DA:163,28
DA:165,14
DA:167,42
DA:168,38
DA:170,4
DA:172,42
DA:173,46
DA:175,30
DA:176,30
DA:177,50
DA:178,48
DA:179,28
DA:180,28
DA:181,28
DA:183,20
DA:185,2
DA:186,30
DA:188,6
DA:189,6
DA:190,12
DA:191,12
DA:192,6
DA:193,2
DA:194,2
DA:196,4
DA:197,4
DA:199,6
DA:201,0
DA:202,6
DA:204,6
DA:205,6
DA:206,10
DA:207,10
DA:208,6
DA:209,2
DA:210,2
DA:212,4
DA:213,4
DA:215,4
DA:217,0
DA:218,6
DA:224,98
DA:225,98
DA:226,266
DA:227,226
DA:228,58
DA:229,168
DA:231,40
DA:232,40
DA:233,98
DA:239,4
DA:240,4
DA:241,2
DA:242,2
DA:245,2
DA:246,6
DA:247,4
DA:248,4
DA:249,4
DA:250,4
DA:251,4
DA:253,4
DA:259,26
DA:260,26
LF:156
LH:154
end_of_record
TN:
SF:/Users/slavavikentev/Desktop// 3//lab-sem-3/3/include/forwardlist.hpp
FNL:0,106,118
FNA:0,6,_ZN11ForwardListIiE5eraseEPNS0_4NodeE
FNL:1,11,11
FNA:1,788,_ZN11ForwardListIiE4NodeC1ERKi
FNA:1,788,_ZN11ForwardListIiE4NodeC2ERKi
FNL:2,120,134
FNA:2,20,_ZN11ForwardListIiE14erase_by_valueERKi
FNL:3,136,152
FNA:3,8,_ZN11ForwardListIiE12erase_beforeEPNS0_4NodeE
FNL:4,154,159
FNA:4,8,_ZN11ForwardListIiE11erase_afterEPNS0_4NodeE
FNL:5,162,174
FNA:5,4,_ZNK11ForwardListIiE11print_whileEv
FNL:6,17,17
FNA:6,74,_ZN11ForwardListIiEC1Ev
FNA:6,74,_ZN11ForwardListIiEC2Ev
FNL:7,176,182
FNA:7,2,_ZNK11ForwardListIiE9print_forEv
FNL:8,184,190
FNA:8,78,_ZN11ForwardListIiE5clearEv
FNL:9,19,21
FNA:9,74,_ZN11ForwardListIiED1Ev
FNA:9,74,_ZN11ForwardListIiED2Ev
FNL:10,192,192
FNA:10,26,_ZNK11ForwardListIiE8get_headEv
FNL:11,24,28
FNA:11,208,_ZN11ForwardListIiE10push_frontERKi
FNL:12,30,40
FNA:12,564,_ZN11ForwardListIiE9push_backERKi
FNL:13,42,61
FNA:13,14,_ZN11ForwardListIiE13insert_beforeEPNS0_4NodeERKi
FNL:14,63,71
FNA:14,10,_ZN11ForwardListIiE12insert_afterEPNS0_4NodeERKi
FNL:15,74,82
FNA:15,96,_ZNK11ForwardListIiE4findERKi
FNL:16,85,90
FNA:16,28,_ZN11ForwardListIiE9pop_frontEv
FNL:17,92,104
FNA:17,6,_ZN11ForwardListIiE8pop_backEv
FNF:18
FNH:18
DA:11,1576
DA:17,148
DA:19,148
DA:20,74
DA:21,148
DA:24,208
DA:25,208
DA:26,208
DA:27,208
DA:28,208
DA:30,564
DA:31,564
DA:32,564
DA:33,60
DA:34,60
DA:36,504
DA:37,20204
DA:38,19700
DA:39,504
DA:40,564
DA:42,14
DA:43,14
DA:44,2
DA:45,2
DA:47,12
DA:48,2
DA:49,2
DA:51,10
DA:52,18
DA:53,8
DA:54,10
DA:55,2
DA:56,2
DA:58,8
DA:59,8
DA:60,8
DA:61,14
DA:63,10
DA:64,10
DA:65,2
DA:66,2
DA:68,8
DA:69,8
DA:70,8
DA:71,10
DA:74,96
DA:75,96
DA:76,676
DA:77,640
DA:78,60
DA:79,580
DA:81,36
DA:82,96
DA:85,28
DA:86,28
DA:87,26
DA:88,26
DA:89,26
DA:90,28
DA:92,6
DA:93,6
DA:94,4
DA:95,2
DA:96,2
DA:97,2
DA:99,2
DA:100,2
DA:101,0
DA:102,2
DA:103,2
DA:104,6
DA:106,6
DA:107,6
DA:108,4
DA:109,2
DA:110,2
DA:112,2
DA:113,2
DA:114,0
DA:115,2
DA:116,2
DA:117,2
DA:118,6
DA:120,20
DA:121,20
DA:122,20
DA:123,2
DA:124,2
DA:126,18
DA:127,18
DA:128,0
DA:129,18
DA:130,18
DA:131,18
DA:132,18
DA:133,18
DA:134,20
DA:136,8
DA:137,8
DA:138,6
DA:139,6
DA:140,20
DA:141,14
DA:142,14
DA:144,6
DA:145,6
DA:146,2
DA:147,2
DA:148,2
DA:149,4
DA:150,4
DA:152,8
DA:154,8
DA:155,8
DA:156,6
DA:157,6
DA:158,6
DA:159,8
DA:162,4
DA:163,4
DA:164,4
DA:165,2
DA:166,2
DA:168,6
DA:169,4
DA:170,4
DA:171,4
DA:172,4
DA:174,4
DA:176,2
DA:177,6
DA:178,4
DA:179,4
DA:180,4
DA:181,4
DA:182,2
DA:184,78
DA:185,804
DA:186,726
DA:187,726
DA:188,726
DA:190,78
DA:192,26
LF:143
LH:140
end_of_record
TN:
SF:/Users/slavavikentev/Desktop// 3//lab-sem-3/3/include/fullbinarytree.hpp
FNL:0,12,12
FNA:0,660,_ZN3BST4NodeC1Ei
FNA:0,660,_ZN3BST4NodeC2Ei
FNL:1,18
FNA:1,6,_ZN3BST9PrintLineD1Ev
FNA:1,6,_ZN3BST9PrintLineD2Ev
FNL:2,21,21
FNA:2,6,_ZN3BST9PrintLineC1ERKNSt3__112basic_stringIcNS1_11char_traitsIcEENS1_9allocatorIcEEEE
FNA:2,6,_ZN3BST9PrintLineC2ERKNSt3__112basic_stringIcNS1_11char_traitsIcEENS1_9allocatorIcEEEE
FNL:3,25,46
FNA:3,6,_ZNK3BST16build_tree_linesEPNS_4NodeEbRKNSt3__112basic_stringIcNS2_11char_traitsIcEENS2_9allocatorIcEEEE
FNL:4,49,54
FNA:4,1344,_ZN3BST5clearEPNS_4NodeE
FNL:5,57,57
FNA:5,24,_ZN3BSTC1Ev
FNA:5,24,_ZN3BSTC2Ev
FNL:6,58,58
FNA:6,24,_ZN3BSTD1Ev
FNA:6,24,_ZN3BSTD2Ev
FNL:7,60,69
FNA:7,660,_ZN3BST6insertEi
FNL:8,71,79
FNA:8,658,_ZNK3BST4findEi
FNL:9,81,95
FNA:9,4,_ZNK3BST12print_prettyEv
FNF:10
FNH:10
DA:12,1320
DA:21,12
DA:25,6
DA:26,6
DA:28,6
DA:29,6
DA:30,6
DA:32,6
DA:33,2
DA:34,2
DA:35,4
DA:36,2
DA:37,6
DA:38,0
DA:39,0
DA:40,4
DA:41,0
DA:42,0
DA:43,0
DA:45,6
DA:46,6
DA:49,1344
DA:50,1344
DA:51,660
DA:52,660
DA:53,660
DA:54,1344
DA:57,48
DA:58,48
DA:60,660
DA:61,660
DA:62,25504
DA:63,24844
DA:64,9930
DA:66,14914
DA:68,660
DA:69,660
DA:71,658
DA:72,658
DA:73,25604
DA:74,25496
DA:75,24946
DA:76,14916
DA:78,108
DA:79,658
DA:81,4
DA:82,4
DA:83,2
DA:84,2
DA:87,2
DA:88,2
DA:89,8
DA:90,6
DA:91,6
DA:92,6
DA:93,6
DA:95,4
LF:57
LH:52
end_of_record
TN:
SF:/Users/slavavikentev/Desktop// 3//lab-sem-3/3/include/hashtable.hpp
FNL:0,110,110
FNA:0,12,_ZNK9HashTableINSt3__112basic_stringIcNS0_11char_traitsIcEENS0_9allocatorIcEEEEiE8get_sizeEv
FNA:0,2,_ZNK9HashTableIiiE8get_sizeEv
FNL:1,111,111
FNA:1,4,_ZNK9HashTableINSt3__112basic_stringIcNS0_11char_traitsIcEENS0_9allocatorIcEEEEiE12get_capacityEv
FNL:2,14,14
FNA:2,2652,_ZN8HashNodeINSt3__112basic_stringIcNS0_11char_traitsIcEENS0_9allocatorIcEEEEiEC1ERKS6_RKi
FNA:2,2652,_ZN8HashNodeINSt3__112basic_stringIcNS0_11char_traitsIcEENS0_9allocatorIcEEEEiEC2ERKS6_RKi
FNA:2,6,_ZN8HashNodeIiNSt3__112basic_stringIcNS0_11char_traitsIcEENS0_9allocatorIcEEEEEC1ERKiRKS6_
FNA:2,6,_ZN8HashNodeIiNSt3__112basic_stringIcNS0_11char_traitsIcEENS0_9allocatorIcEEEEEC2ERKiRKS6_
FNA:2,220,_ZN8HashNodeIiiEC1ERKiS2_
FNA:2,220,_ZN8HashNodeIiiEC2ERKiS2_
FNL:3,26,27
FNA:3,5166,_ZNK9HashTableINSt3__112basic_stringIcNS0_11char_traitsIcEENS0_9allocatorIcEEEEiE4hashERKS6_
FNA:3,10,_ZNK9HashTableIiNSt3__112basic_stringIcNS0_11char_traitsIcEENS0_9allocatorIcEEEEE4hashERKi
FNA:3,440,_ZNK9HashTableIiiE4hashERKi
FNL:4,31,33
FNA:4,22,_ZN9HashTableINSt3__112basic_stringIcNS0_11char_traitsIcEENS0_9allocatorIcEEEEiEC1Ei
FNA:4,22,_ZN9HashTableINSt3__112basic_stringIcNS0_11char_traitsIcEENS0_9allocatorIcEEEEiEC2Ei
FNA:4,2,_ZN9HashTableIiNSt3__112basic_stringIcNS0_11char_traitsIcEENS0_9allocatorIcEEEEEC1Ei
FNA:4,2,_ZN9HashTableIiNSt3__112basic_stringIcNS0_11char_traitsIcEENS0_9allocatorIcEEEEEC2Ei
FNA:4,4,_ZN9HashTableIiiEC1Ei
FNA:4,4,_ZN9HashTableIiiEC2Ei
FNL:5,35,44
FNA:5,22,_ZN9HashTableINSt3__112basic_stringIcNS0_11char_traitsIcEENS0_9allocatorIcEEEEiED1Ev
FNA:5,22,_ZN9HashTableINSt3__112basic_stringIcNS0_11char_traitsIcEENS0_9allocatorIcEEEEiED2Ev
FNA:5,2,_ZN9HashTableIiNSt3__112basic_stringIcNS0_11char_traitsIcEENS0_9allocatorIcEEEEED1Ev
FNA:5,2,_ZN9HashTableIiNSt3__112basic_stringIcNS0_11char_traitsIcEENS0_9allocatorIcEEEEED2Ev
FNA:5,4,_ZN9HashTableIiiED1Ev
FNA:5,4,_ZN9HashTableIiiED2Ev
FNL:6,47,61
FNA:6,2852,_ZN9HashTableINSt3__112basic_stringIcNS0_11char_traitsIcEENS0_9allocatorIcEEEEiE6insertERKS6_RKi
FNA:6,6,_ZN9HashTableIiNSt3__112basic_stringIcNS0_11char_traitsIcEENS0_9allocatorIcEEEEE6insertERKiRKS6_
FNA:6,220,_ZN9HashTableIiiE6insertERKiS2_
FNL:7,64,75
FNA:7,2210,_ZNK9HashTableINSt3__112basic_stringIcNS0_11char_traitsIcEENS0_9allocatorIcEEEEiE4findERKS6_Ri
FNA:7,4,_ZNK9HashTableIiNSt3__112basic_stringIcNS0_11char_traitsIcEENS0_9allocatorIcEEEEE4findERKiRS6_
FNA:7,220,_ZNK9HashTableIiiE4findERKiRi
FNL:8,78,95
FNA:8,104,_ZN9HashTableINSt3__112basic_stringIcNS0_11char_traitsIcEENS0_9allocatorIcEEEEiE6removeERKS6_
FNL:9,8,14
FNA:9,2652,_ZN8HashNodeINSt3__112basic_stringIcNS0_11char_traitsIcEENS0_9allocatorIcEEEEiED1Ev
FNA:9,2652,_ZN8HashNodeINSt3__112basic_stringIcNS0_11char_traitsIcEENS0_9allocatorIcEEEEiED2Ev
FNA:9,6,_ZN8HashNodeIiNSt3__112basic_stringIcNS0_11char_traitsIcEENS0_9allocatorIcEEEEED1Ev
FNA:9,6,_ZN8HashNodeIiNSt3__112basic_stringIcNS0_11char_traitsIcEENS0_9allocatorIcEEEEED2Ev
FNL:10,98,108
FNA:10,2,_ZNK9HashTableINSt3__112basic_stringIcNS0_11char_traitsIcEENS0_9allocatorIcEEEEiE5printEv
FNF:11
FNH:11
DA:14,5756
DA:26,5616
DA:27,5616
DA:31,56
DA:32,28
DA:33,56
DA:35,56
DA:36,564
DA:37,536
DA:38,3312
DA:39,2776
DA:40,2776
DA:41,2776
DA:43,536
DA:44,56
DA:47,3078
DA:48,3078
DA:49,3078
DA:50,67542
DA:51,64664
DA:52,200
DA:53,200
DA:55,64464
DA:57,2878
DA:58,2878
DA:59,2878
DA:60,2878
DA:61,3078
DA:64,2434
DA:65,2434
DA:66,2434
DA:67,66126
DA:68,66022
DA:69,2330
DA:70,2330
DA:72,63692
DA:74,104
DA:75,2434
DA:78,104
DA:79,104
DA:80,104
DA:81,104
DA:83,538
DA:84,536
DA:85,102
DA:86,2
DA:87,102
DA:88,102
DA:89,102
DA:91,434
DA:92,434
DA:94,2
DA:95,104
DA:98,2
DA:99,34
DA:100,32
DA:101,32
DA:102,36
DA:103,4
DA:104,4
DA:106,32
DA:107,32
DA:108,2
DA:110,14
DA:111,4
LF:65
LH:65
end_of_record
TN:
SF:/Users/slavavikentev/Desktop// 3//lab-sem-3/3/include/queue.hpp
FNL:0,14,28
FNA:0,76,_ZN5QueueIiE6resizeEv
FNL:1,31,31
FNA:1,24,_ZN5QueueIiEC1Ev
FNA:1,24,_ZN5QueueIiEC2Ev
FNL:2,33,35
FNA:2,24,_ZN5QueueIiED1Ev
FNA:2,24,_ZN5QueueIiED2Ev
FNL:3,37,44
FNA:3,22088,_ZN5QueueIiE4pushERKi
FNL:4,46,60
FNA:4,22086,_ZN5QueueIiE3popEv
FNL:5,62,63
FNA:5,8,_ZNK5QueueIiE8is_emptyEv
FNL:6,66,67
FNA:6,18,_ZNK5QueueIiE8get_sizeEv
FNL:7,70,80
FNA:7,4,_ZNK5QueueIiE5printEv
FNF:8
FNH:8
DA:14,76
DA:15,76
DA:16,76
DA:18,34944
DA:19,34868
DA:20,34868
DA:21,34868
DA:23,76
DA:24,76
DA:25,76
DA:26,76
DA:27,76
DA:28,76
DA:31,48
DA:33,48
DA:34,24
DA:35,48
DA:37,22088
DA:38,22088
DA:39,76
DA:40,76
DA:41,22088
DA:42,22088
DA:43,22088
DA:44,22088
DA:46,22086
DA:47,22086
DA:48,2
DA:49,2
DA:51,22084
DA:52,22084
DA:53,22084
DA:55,22084
DA:56,16
DA:57,16
DA:59,22084
DA:60,22086
DA:62,8
DA:63,8
DA:66,18
DA:67,18
DA:70,4
DA:71,4
DA:72,2
DA:73,2
DA:75,6
DA:76,4
DA:77,4
DA:78,4
DA:79,2
DA:80,4
LF:51
LH:51
end_of_record
TN:
SF:/Users/slavavikentev/Desktop// 3//lab-sem-3/3/include/stack.hpp
FNL:0,12,12
FNA:0,2870,_ZN5StackIiE9StackNodeC1Ei
FNA:0,2870,_ZN5StackIiE9StackNodeC2Ei
FNL:1,19,19
FNA:1,52,_ZN5StackIiEC1Ev
FNA:1,52,_ZN5StackIiEC2Ev
FNL:2,21,23
FNA:2,52,_ZN5StackIiED1Ev
FNA:2,52,_ZN5StackIiED2Ev
FNL:3,25,30
FNA:3,2870,_ZN5StackIiE4pushERKi
FNL:4,32,43
FNA:4,2226,_ZN5StackIiE3popEv
FNL:5,45,51
FNA:5,14,_ZNK5StackIiE4peekEv
FNL:6,53,54
FNA:6,2258,_ZNK5StackIiE8is_emptyEv
FNL:7,57,58
FNA:7,22,_ZNK5StackIiE4sizeEv
FNL:8,61,68
FNA:8,2,_ZNK5StackIiE5printEv
FNL:9,70,77
FNA:9,68,_ZN5StackIiE5clearEv
FNL:10,80,97
FNA:10,12,_ZN5StackIiE9copy_fromERKS0_
FNF:11
FNH:11
DA:12,5740
DA:19,104
DA:21,104
DA:22,52
DA:23,104
DA:25,2870
DA:26,2870
DA:27,2870
DA:28,2870
DA:29,2870
DA:30,2870
DA:32,2226
DA:33,2226
DA:34,2
DA:35,2
DA:37,2224
DA:38,2224
DA:39,2224
DA:40,2224
DA:41,2224
DA:42,2224
DA:43,2226
DA:45,14
DA:46,14
DA:47,2
DA:48,2
DA:50,12
DA:51,14
DA:53,2258
DA:54,2258
DA:57,22
DA:58,22
DA:61,2
DA:62,2
DA:63,6
DA:64,4
DA:65,4
DA:67,2
DA:68,2
DA:70,68
DA:71,714
DA:72,646
DA:73,646
DA:74,646
DA:76,68
DA:77,68
DA:80,12
DA:81,12
DA:84,12
DA:85,12
DA:87,224
DA:88,212
DA:89,212
DA:92,12
DA:93,224
DA:94,212
DA:95,212
DA:97,12
LF:58
LH:58
end_of_record
TN:
SF:/Users/slavavikentev/Desktop// 3//lab-sem-3/3/tests/boosttest.cpp
